ccopy_reg
_reconstructor
p1
(ctensorflow.contrib.learn.python.learn.preprocessing.text
VocabularyProcessor
p2
c__builtin__
object
p3
NtRp4
(dp5
S'vocabulary_'
p6
g1
(ctensorflow.contrib.learn.python.learn.preprocessing.categorical_vocabulary
CategoricalVocabulary
p7
g3
NtRp8
(dp9
S'_freeze'
p10
I01
sS'_unknown_token'
p11
S'<UNK>'
p12
sS'_support_reverse'
p13
I01
sS'_freq'
p14
ccollections
defaultdict
p15
(c__builtin__
int
p16
tRp17
S'Savage'
p18
I1
sS'Stuart'
p19
I1
sS'Varnish'
p20
I1
sS'earmarks'
p21
I1
sS'Does'
p22
I1
sS'controversial'
p23
I1
sS'aides'
p24
I1
sS'captain'
p25
I1
sS'hate'
p26
I2
sS"Apple's"
p27
I1
sS'Liverpool'
p28
I6
sS'Livingstone'
p29
I1
sS"China's"
p30
I1
sS'Watch'
p31
I5
sS"fog'"
p32
I1
sS'under'
p33
I2
sS"'Fate"
p34
I1
sS'Shoot'
p35
I1
sS'League'
p36
I2
sS'GP'
p37
I1
sS'Became'
p38
I1
sS'GB'
p39
I1
sS'much-loved'
p40
I1
sS'Suitors'
p41
I1
sS'school'
p42
I1
sS'Campaign'
p43
I2
sS'Premier'
p44
I1
sS'protest'
p45
I3
sS'math'
p46
I1
sS'Go'
p47
I1
sS'Paul'
p48
I2
sS'phones'
p49
I1
sS'warns'
p50
I1
sS'Christie'
p51
I1
sS"Warriors'"
p52
I1
sS'A'
I2
sS'Pathogen'
p53
I1
sS'even'
p54
I1
sS'Kaufman'
p55
I1
sS'thunder'
p56
I1
sS'Nafta'
p57
I1
sS'Game'
p58
I2
sS'Hamilton'
p59
I3
sS'new'
p60
I3
sS'ever'
p61
I2
sS'Needing'
p62
I1
sS'G6'
p63
I1
sS'join'
p64
I1
sS'never'
p65
I1
sS'Budget'
p66
I3
sS'hundreds'
p67
I1
sS'protection'
p68
I1
sS'Sidelined'
p69
I1
sS'100'
p70
I1
sS'Precise'
p71
I1
sS'ODI'
p72
I1
sS'kids'
p73
I2
sS'employees'
p74
I1
sS'Perks'
p75
I1
sS'controversy'
p76
I1
sS'Pushed'
p77
I1
sS'Qaeda'
p78
I1
sS'become\xe5\xcaLa'
p79
I1
sS'military'
p80
I1
sS'changes'
p81
I1
sS"'impressed'"
p82
I1
sS'Orleans'
p83
I1
sS'resurrected'
p84
I1
sS'campaign'
p85
I1
sS'Chaffetz'
p86
I1
sS'27-18'
p87
I2
sS'two-state'
p88
I1
sS'Three'
p89
I1
sS'patience'
p90
I1
sS'Health'
p91
I2
sS'Meet'
p92
I1
sS'Wales'
p93
I2
sS'Jen'
p94
I1
sS'plot'
p95
I1
sS"crash'"
p96
I1
sS'Usada'
p97
I1
sS'would'
p98
I1
sS'hospital'
p99
I1
sS'Removes'
p100
I1
sS'leaks'
p101
I3
sS'call'
p102
I1
sS'strike'
p103
I1
sS'Johanna'
p104
I1
sS'Brighton'
p105
I1
sS'Blind'
p106
I1
sS'brings'
p107
I2
sS'phone'
p108
I2
sS'Hacking'
p109
I1
sS'hold'
p110
I1
sS'must'
p111
I1
sS'me'
p112
I1
sS'1993'
p113
I1
sS'Financial'
p114
I1
sS'theories'
p115
I1
sS'my'
p116
I1
sS'addictive'
p117
I1
sS'Lie'
p118
I1
sS'Le'
p119
I2
sS'La'
p120
I4
sS'Lil'
p121
I1
sS'cited'
p122
I1
sS'and\xe5\xcawaterproofing'
p123
I1
sS'LG'
p124
I2
sS'Benoit'
p125
I1
sS'Welsh'
p126
I2
sS'travel'
p127
I3
sS"'hold"
p128
I1
sS'Killing'
p129
I1
sS'how'
p130
I1
sS"He'll"
p131
I1
sS'Billion'
p132
I2
sS'mess'
p133
I1
sS'quits'
p134
I1
sS'after'
p135
I16
sS'Will'
p136
I2
sS'president'
p137
I1
sS'law'
p138
I1
sS'ex-wife'
p139
I1
sS'All'
p140
I1
sS'wins'
p141
I8
sS'Raith'
p142
I1
sS'Beyond'
p143
I1
sS'over'
p144
I4
sS'Kante'
p145
I1
sS'Pixel'
p146
I1
sS'bombing'
p147
I1
sS'His'
p148
I1
sS'highlights'
p149
I2
sS"'Nobody"
p150
I1
sS'Here'
p151
I2
sS'better'
p152
I1
sS'Judge'
p153
I1
sS'Him'
p154
I1
sS'Generals'
p155
I1
sS'Mobile'
p156
I1
sS'safe'
p157
I1
sS'of\xe5\xcaHangouts'
p158
I1
sS'Club'
p159
I1
sS'Omar'
p160
I2
sS'they'
p161
I1
sS'Argues'
p162
I1
sS'filling'
p163
I1
sS'each'
p164
I1
sS'Rovers'
p165
I2
sS'Dow'
p166
I1
sS'Hate'
p167
I1
sS'Gabbiadini'
p168
I2
sS'Transport'
p169
I1
sS'Millions'
p170
I1
sS'lifted'
p171
I1
sS'series'
p172
I1
sS'aide'
p173
I1
sS'Anyone'
p174
I1
sS'Won'
p175
I1
sS'stealing'
p176
I1
sS'Musk'
p177
I2
sS'whining'
p178
I1
sS"Misbegotten'"
p179
I1
sS'ABook'
p180
I1
sS'Tribe\xe5\xcastartup'
p181
I1
sS'Civilians'
p182
I1
sS'Super'
p183
I1
sS'Must'
p184
I1
sS'resume'
p185
I1
sS'given'
p186
I1
sS'free'
p187
I2
sS'admits'
p188
I1
sS'struggle'
p189
I1
sS'W'
I1
sS'Tariffs'
p190
I1
sS'wanted'
p191
I1
sS'Soft'
p192
I1
sS'Nixon'
p193
I1
sS'Clinton'
p194
I1
sS'starts'
p195
I2
sS"go'"
p196
I1
sS'Chao'
p197
I1
sS'Driveway'
p198
I1
sS'1970s'
p199
I1
sS'Facts'
p200
I1
sS'Chair'
p201
I1
sS'daunting'
p202
I1
sS'Working'
p203
I1
sS'coding'
p204
I1
sS'Lunardi'
p205
I1
sS'Congress'
p206
I3
sS'top'
p207
I1
sS'Inflation'
p208
I1
sS"Off'"
p209
I1
sS'Press'
p210
I1
sS'murder'
p211
I1
sS'BBC'
p212
I7
sS"Puzder's"
p213
I3
sS'peril'
p214
I1
sS'roles'
p215
I1
sS'hike'
p216
I1
sS'tourists'
p217
I2
sS'Elected'
p218
I1
sS'Galaxy'
p219
I1
sS'sees'
p220
I1
sS'2-0'
p221
I2
sS'Mnuchin'
p222
I1
sS'tells'
p223
I1
sS'genuine'
p224
I1
sS"'Day"
p225
I1
sS'-'
I46
sS'Rate'
p226
I2
sS'Stoke'
p227
I1
sS'Bank'
p228
I4
sS'Jones'
p229
I2
sS'Reports'
p230
I1
sS'letter'
p231
I1
sS'Vision'
p232
I1
sS"It'll"
p233
I1
sS'Promises'
p234
I2
sS'don'
p235
I1
sS'treats'
p236
I1
sS'Lewis'
p237
I2
sS'Vauxhall'
p238
I1
sS'competitors'
p239
I1
sS'points'
p240
I2
sS'tech'
p241
I1
sS'Election'
p242
I1
sS'Filmmaking'
p243
I1
sS'voting'
p244
I1
sS'Its'
p245
I5
sS'saying'
p246
I1
sS'Ozobot'
p247
I1
sS'bomb'
p248
I1
sS'Union'
p249
I2
sS'Tapper'
p250
I1
sS'probe'
p251
I3
sS'ending'
p252
I1
sS'Huawei'
p253
I1
sS'colors'
p254
I1
sS'radio'
p255
I1
sS'Marks'
p256
I1
sS'Stance'
p257
I1
sS'Reaching'
p258
I1
sS'Big'
p259
I2
sS'Bid'
p260
I1
sS'Republicans'
p261
I3
sS'AWS'
p262
I1
sS'Amazon'
p263
I1
sS'Free'
p264
I2
sS'LIVE'
p265
I2
sS'glitz'
p266
I1
sS'do'
p267
I1
sS'Turns'
p268
I1
sS'watch'
p269
I2
sS'Days'
p270
I1
sS'hearings'
p271
I2
sS'despite'
p272
I1
sS'report'
p273
I1
sS'X'
I6
sS'Fingleton'
p274
I1
sS'Soviet'
p275
I1
sS"Durant's"
p276
I1
sS'Looms'
p277
I2
sS'Over'
p278
I2
sS'ban'
p279
I1
sS'Perez'
p280
I4
sS"Beast'"
p281
I1
sS'secretary'
p282
I2
sS"'SportsCenter'"
p283
I1
sS'testing'
p284
I3
sS'Pen'
p285
I2
sS'Short'
p286
I1
sS'result'
p287
I1
sS'Formula'
p288
I1
sS'John'
p289
I3
sS'Boost'
p290
I1
sS'best'
p291
I3
sS'said'
p292
I1
sS'draws'
p293
I2
sS'away'
p294
I1
sS'score'
p295
I1
sS'discovers'
p296
I1
sS'Peugeot'
p297
I1
sS'Roundup'
p298
I2
sS'Ranieri'
p299
I4
sS'we'
p300
I1
sS'Central'
p301
I1
sS'vows'
p302
I1
sS'confusion'
p303
I1
sS'Fake'
p304
I1
sS'boss'
p305
I2
sS'Populism'
p306
I1
sS'Remain'
p307
I1
sS'news'
p308
I1
sS'uncertainty'
p309
I1
sS'against'
p310
I5
sS'Laura'
p311
I2
sS'\xdb\xd3\xe5\xcaHas'
p312
I1
sS'Corbyn'
p313
I4
sS"leaders'"
p314
I1
sS'Navy'
p315
I2
sS'com'
p316
I1
sS'Closer'
p317
I1
sS'Spotify'
p318
I1
sS"Farah's"
p319
I1
sS'Ireland'
p320
I1
sS'spoke'
p321
I1
sS'trust'
p322
I1
sS'Gives'
p323
I1
sS'conference'
p324
I1
sS'basis'
p325
I1
sS'union'
p326
I1
sS'Southern'
p327
I1
sS'three'
p328
I2
sS'been'
p329
I2
sS'Bracketology'
p330
I1
sS'Chance'
p331
I1
sS"'complicated'"
p332
I1
sS'\xdb\xaas'
p333
I13
sS'CN'
p334
I1
sS'\xdb\xaat'
p335
I3
sS'attacked'
p336
I1
sS'Poland'
p337
I1
sS"administration'"
p338
I1
sS'Philadelphia'
p339
I1
sS'child'
p340
I1
sS'Cain'
p341
I3
sS'Voice'
p342
I1
sS'Secretary'
p343
I2
sS'Heinz'
p344
I1
sS'Rocket'
p345
I1
sS'launches'
p346
I2
sS'Dollar'
p347
I1
sS'Billions'
p348
I1
sS'aim'
p349
I1
sS'abrupt'
p350
I1
sS'\xdb\xaa'
p351
I13
sS'Tuesday'
p352
I1
sS'launched'
p353
I1
sS'mistake'
p354
I2
sS'is'
p355
I14
sS'dumped'
p356
I1
sS'it'
p357
I3
sS'Bush'
p358
I1
sS'experts'
p359
I1
sS'in'
p360
I49
sS'Falling'
p361
I1
sS'Warriors'
p362
I1
sS'Tell'
p363
I1
sS'grown'
p364
I1
sS'patent'
p365
I1
sS'things'
p366
I1
sS'make'
p367
I1
sS'Ramps'
p368
I1
sS'President'
p369
I3
sS'several'
p370
I1
sS'raid'
p371
I1
sS'outspends'
p372
I1
sS'tops'
p373
I1
sS'Truck'
p374
I1
sS'Home'
p375
I2
sS'Air'
p376
I1
sS'Gates'
p377
I2
sS'kept'
p378
I1
sS'Leicester'
p379
I9
sS'Hydrogen'
p380
I1
sS'Gavin'
p381
I1
sS'mother'
p382
I1
sS'claims'
p383
I2
sS'the'
p384
I41
sS'800'
p385
I2
sS'Surface\xe5\xcaclones'
p386
I1
sS'Bobsleigh'
p387
I1
sS"doubts'"
p388
I1
sS'victim'
p389
I1
sS'Yemen'
p390
I1
sS'Oscar'
p391
I6
sS'assassination'
p392
I1
sS'Soundtrack'
p393
I1
sS'prison'
p394
I1
sS'News'
p395
I4
sS'Philip'
p396
I1
sS'Debt'
p397
I1
sS'Wilbur'
p398
I1
sS'James'
p399
I1
sS'breaks'
p400
I2
sS'Worth'
p401
I1
sS'apart'
p402
I1
sS'Lords'
p403
I1
sS'Trump'
p404
I62
sS'54'
p405
I1
sS'50'
p406
I1
sS'Claudio'
p407
I2
sS'Are'
p408
I4
sS'security'
p409
I3
sS'Pentagon'
p410
I3
sS'Warren'
p411
I2
sS"Utd's"
p412
I1
sS'right'
p413
I3
sS'crowd'
p414
I2
sS'people'
p415
I3
sS'sends'
p416
I1
sS'System'
p417
I1
sS'dead'
p418
I1
sS'Suspect'
p419
I1
sS'election'
p420
I3
sS'Off'
p421
I1
sS'harassment'
p422
I2
sS'contests'
p423
I1
sS'Motherwell'
p424
I1
sS'Lee'
p425
I1
sS'for'
p426
I34
sS'ice'
p427
I1
sS'Facebook'
p428
I2
sS'He'
p429
I2
sS'Casts'
p430
I1
sS'Gras'
p431
I1
sS'Unleash'
p432
I1
sS'memorable'
p433
I1
sS'First'
p434
I2
sS'attacks'
p435
I2
sS'accepts'
p436
I1
sS'undocumented'
p437
I1
sS'dinner'
p438
I3
sS'Pedestal'
p439
I1
sS'Still'
p440
I1
sS'Best'
p441
I4
sS'Fed'
p442
I2
sS'Cut'
p443
I2
sS'Cup'
p444
I8
sS'Scotland'
p445
I1
sS'son'
p446
I1
sS'raises'
p447
I2
sS'Provides'
p448
I1
sS'Schiff'
p449
I1
sS'ISIS'
p450
I1
sS'deal'
p451
I1
sS'Reported'
p452
I1
sS'of\xe5\xcasmartphones'
p453
I1
sS'support'
p454
I2
sS'fight'
p455
I2
sS'way'
p456
I1
sS'was'
p457
I3
sS'halls'
p458
I1
sS'launching'
p459
I1
sS'DNC'
p460
I2
sS'offer'
p461
I1
sS'Disability'
p462
I1
sS"'I'm"
p463
I1
sS"kiss'"
p464
I1
sS'Aramco'
p465
I1
sS'silliness'
p466
I1
sS'bids'
p467
I1
sS"Crooks'"
p468
I1
sS'County'
p469
I1
sS'Cotter'
p470
I1
sS'Engineering'
p471
I1
sS'lays'
p472
I1
sS'Vos'
p473
I1
sS'Tony'
p474
I2
sS'\xdb\xaall'
p475
I1
sS'Sir'
p476
I1
sS'promises'
p477
I2
sS'Bullish'
p478
I1
sS'tournament'
p479
I2
sS'Surpasses'
p480
I1
sS'proves'
p481
I1
sS'Grumbling'
p482
I1
sS'trip'
p483
I1
sS'Begin'
p484
I1
sS'Handle'
p485
I1
sS'when'
p486
I1
sS'Andrew'
p487
I4
sS'actor'
p488
I3
sS'warms'
p489
I1
sS'Olga'
p490
I1
sS'test'
p491
I3
sS'Economy'
p492
I1
sS'picture'
p493
I3
sS"'s"
p494
I4
sS'dies'
p495
I11
sS'outage'
p496
I1
sS'Drive'
p497
I1
sS'Earth-like\xe5\xcaplanets'
p498
I1
sS'scores'
p499
I1
sS'died'
p500
I1
sS'billion'
p501
I2
sS'Recuse'
p502
I1
sS'Pacquiao'
p503
I1
sS'Win'
p504
I2
sS'Corvey'
p505
I1
sS"Exxon's"
p506
I1
sS'Jess'
p507
I1
sS'premiums'
p508
I1
sS"'A"
p509
I1
sS'time'
p510
I1
sS'Times'
p511
I1
sS'coach'
p512
I1
sS'skip'
p513
I1
sS'Buffett'
p514
I4
sS'leads'
p515
I1
sS'manager'
p516
I1
sS"Jones'"
p517
I1
sS'Films'
p518
I1
sS'dismantling'
p519
I1
sS'Cowell'
p520
I1
sS'Columbia'
p521
I1
sS'essentials'
p522
I1
sS'Dan'
p523
I1
sS'Milestone'
p524
I1
sS'terror'
p525
I2
sS'Let'
p526
I1
sS'Hedge'
p527
I2
sS'Day'
p528
I4
sS'adviser'
p529
I3
sS"staffers'"
p530
I1
sS'Tech'
p531
I1
sS'anonymous'
p532
I1
sS'word'
p533
I1
sS'\xdb'
I13
sS'Where'
p534
I1
sS'swapping'
p535
I1
sS'Just'
p536
I1
sS'did'
p537
I1
sS'posts'
p538
I1
sS'accidentally'
p539
I1
sS'team'
p540
I2
sS'speculation'
p541
I1
sS'round'
p542
I1
sS'Kevin'
p543
I2
sS'Rey'
p544
I1
sS'says'
p545
I6
sS"'really"
p546
I1
sS'adulation'
p547
I1
sS'Shakespeare'
p548
I1
sS'Rich'
p549
I1
sS'chicken'
p550
I1
sS'Seeks'
p551
I3
sS'resurgence'
p552
I1
sS'Head'
p553
I1
sS'supporter'
p554
I2
sS'P10'
p555
I1
sS'Cruz'
p556
I1
sS'suspect'
p557
I1
sS'Independence'
p558
I1
sS'goes'
p559
I1
sS'international'
p560
I1
sS'boost'
p561
I1
sS'Bill'
p562
I6
sS"West'"
p563
I1
sS'Mc'
p564
I8
sS'Mo'
p565
I2
sS'Infrastructure'
p566
I1
sS'Bellew'
p567
I1
sS'groups'
p568
I1
sS'address'
p569
I2
sS"hadn't"
p570
I1
sS'stem'
p571
I1
sS'Changes'
p572
I1
sS'Sees'
p573
I1
sS"'Big'"
p574
I1
sS'guilty'
p575
I1
sS'Travis'
p576
I1
sS'MP'
p577
I1
sS'MS'
p578
I1
sS'Abdel'
p579
I1
sS'Inc'
p580
I1
sS'at\xe5\xcaGoogle'
p581
I1
sS'next\xe5\xcayear'
p582
I1
sS'Justice'
p583
I1
sS"It's"
p584
I3
sS'retires'
p585
I1
sS'Jong'
p586
I2
sS'Alberto'
p587
I1
sS'crisis'
p588
I1
sS'Sanders'
p589
I3
sS"review'"
p590
I1
sS'troops'
p591
I1
sS'working'
p592
I1
sS'give'
p593
I2
sS'by'
p594
I8
sS'live'
p595
I5
sS'Awards'
p596
I1
sS'Bilden'
p597
I1
sS'scope'
p598
I1
sS'today'
p599
I1
sS"Nam's"
p600
I1
sS'Revamped'
p601
I1
sS'Ben'
p602
I2
sS'riot'
p603
I1
sS'These'
p604
I1
sS'Mount'
p605
I1
sS'Summary'
p606
I1
sS'Time'
p607
I1
sS'fly'
p608
I2
sS'migrants'
p609
I2
sS"wrong'"
p610
I1
sS'Concise'
p611
I1
sS'avoiding'
p612
I1
sS'abortion'
p613
I1
sS'believes'
p614
I1
sS'Prix'
p615
I2
sS'recap'
p616
I4
sS'can'
p617
I1
sS'Wrap'
p618
I1
sS'Tells'
p619
I1
sS'Out'
p620
I2
sS'claim'
p621
I1
sS'figure'
p622
I1
sS'Media'
p623
I1
sS'supremacy'
p624
I1
sS'Dutch'
p625
I1
sS'Britons'
p626
I1
sS'stole'
p627
I1
sS'Shows'
p628
I3
sS'mocks'
p629
I1
sS'winter'
p630
I1
sS'Who'
p631
I1
sS'1'
I3
sS'rallies'
p632
I1
sS'speaks'
p633
I1
sS'Why'
p634
I7
sS'economy'
p635
I1
sS'may'
p636
I3
sS'Always'
p637
I1
sS'spot'
p638
I1
sS'date'
p639
I1
sS'nomination'
p640
I2
sS'man'
p641
I1
sS'Series'
p642
I1
sS'Probe'
p643
I2
sS'Sources'
p644
I1
sS'Radio'
p645
I3
sS"no'"
p646
I1
sS'Brexit'
p647
I4
sS'feature'
p648
I1
sS'flagships'
p649
I1
sS'cuts'
p650
I1
sS'White'
p651
I8
sS'still'
p652
I1
sS'Direction'
p653
I1
sS'Raid'
p654
I1
sS'monitor'
p655
I1
sS"he's"
p656
I2
sS'window'
p657
I1
sS'RB'
p658
I1
sS'World'
p659
I5
sS'Hodgson'
p660
I1
sS'matches'
p661
I1
sS'Deutsche'
p662
I1
sS'nation'
p663
I1
sS'Alliance'
p664
I1
sS'not'
p665
I1
sS'killed'
p666
I2
sS'Executed'
p667
I1
sS"disabled'"
p668
I1
sS'OPEC'
p669
I1
sS'Skip'
p670
I1
sS'didn'
p671
I1
sS'Wagner'
p672
I1
sS'Watches'
p673
I1
sS'Stanley'
p674
I1
sS'Paying'
p675
I1
sS'Live'
p676
I3
sS'year'
p677
I2
sS'Learned'
p678
I1
sS'Caroline'
p679
I1
sS'Carolina'
p680
I1
sS'Satellite'
p681
I1
sS'Added'
p682
I1
sS"'rigged'"
p683
I1
sS'space'
p684
I1
sS'irony'
p685
I1
sS"'test"
p686
I1
sS'Job'
p687
I1
sS'investigation'
p688
I2
sS'Joe'
p689
I1
sS'Key'
p690
I2
sS'shows'
p691
I1
sS'Commerce'
p692
I1
sS'Samsung'
p693
I6
sS'lawmaker'
p694
I1
sS'million'
p695
I2
sS'Judd'
p696
I1
sS'Pivots'
p697
I1
sS'government'
p698
I1
sS'rebel'
p699
I1
sS'fifth-round'
p700
I2
sS'Atletico'
p701
I1
sS'Security'
p702
I2
sS'care'
p703
I2
sS'-Cas9'
p704
I1
sS'Already'
p705
I1
sS'Battery'
p706
I1
sS'thing'
p707
I1
sS'husband'
p708
I1
sS'Triple'
p709
I1
sS'Touch'
p710
I1
sS'Eric'
p711
I1
sS'first'
p712
I4
sS'Giant'
p713
I2
sS'one'
p714
I2
sS'Black'
p715
I1
sS'suspended'
p716
I1
sS'Harewood'
p717
I1
sS'Hollywood'
p718
I1
sS'lags'
p719
I1
sS'Raggett'
p720
I1
sS'little'
p721
I1
sS'Monday'
p722
I1
sS'Investigations'
p723
I1
sS'response'
p724
I1
sS'returns'
p725
I1
sS'2'
I4
sS'white'
p726
I1
sS'Repeal'
p727
I2
sS'1m'
p728
I1
sS'Response'
p729
I1
sS'friend'
p730
I2
sS'Knockoff'
p731
I1
sS'Subscribers'
p732
I1
sS'that'
p733
I2
sS'season'
p734
I1
sS"men's"
p735
I1
sS'Renewing'
p736
I1
sS'than'
p737
I2
sS'Opts'
p738
I1
sS'10'
p739
I3
sS'13'
p740
I1
sS'14'
p741
I1
sS'27-year'
p742
I1
sS"Furious'"
p743
I1
sS'future'
p744
I1
sS'were'
p745
I1
sS'shakeup'
p746
I1
sS'and'
p747
I28
sS'turned'
p748
I1
sS'DC'
p749
I1
sS'Submit'
p750
I1
sS'say'
p751
I1
sS'conspiracy'
p752
I1
sS'Calm'
p753
I1
sS'sells'
p754
I1
sS'blunder'
p755
I1
sS'Shaun'
p756
I1
sS'Jewish'
p757
I1
sS'De'
p758
I1
sS'Richest'
p759
I1
sS'zoo'
p760
I1
sS'squad'
p761
I1
sS'switching'
p762
I1
sS'Democrats'
p763
I1
sS'Rugby'
p764
I2
sS'knew'
p765
I2
sS'Rallies'
p766
I1
sS'DHS'
p767
I1
sS'GOP'
p768
I4
sS"science'"
p769
I1
sS'Allegations'
p770
I1
sS"terrorism'"
p771
I1
sS'senior'
p772
I1
sS'La\xe5\xcaLand'
p773
I1
sS'Broncos'
p774
I1
sS'shot'
p775
I1
sS'show'
p776
I1
sS'allegations'
p777
I1
sS'infant'
p778
I1
sS'Stephen'
p779
I1
sS'one-frame'
p780
I1
sS'ground'
p781
I1
sS'Wants'
p782
I2
sS'We'
p783
I3
sS'Woman'
p784
I2
sS'title'
p785
I1
sS'behind'
p786
I1
sS'crime'
p787
I1
sS'only'
p788
I2
sS'going'
p789
I1
sS'black'
p790
I1
sS'dispute'
p791
I1
sS'hippo'
p792
I1
sS'get'
p793
I2
sS'Large'
p794
I1
sS'Turn'
p795
I1
sS'killers'
p796
I1
sS"'unreal'"
p797
I1
sS'Amit'
p798
I1
sS'Amir'
p799
I1
sS'Republican'
p800
I2
sS'Champs'
p801
I1
sS'worried'
p802
I1
sS'Manchester'
p803
I2
sS"press'"
p804
I1
sS'vision'
p805
I1
sS'declared'
p806
I1
sS'new\xe5\xcafootage'
p807
I1
sS"France's"
p808
I1
sS"job'"
p809
I1
sS'college'
p810
I1
sS"'vulnerable'"
p811
I1
sS'Grand'
p812
I2
sS'Fares'
p813
I1
sS'fails'
p814
I1
sS'detect'
p815
I1
sS'federal'
p816
I1
sS'3'
I3
sS'Leeds'
p817
I1
sS'altercation'
p818
I1
sS'Told'
p819
I1
sS'Than'
p820
I1
sS'notice'
p821
I1
sS'Johnson'
p822
I1
sS'screen'
p823
I1
sS'killing'
p824
I1
sS'awards'
p825
I1
sS'Each'
p826
I1
sS'3310'
p827
I1
sS"'pending"
p828
I1
sS'Grounds'
p829
I1
sS'reaction'
p830
I1
sS'Post-Tillerson'
p831
I1
sS'rugby'
p832
I1
sS'Give'
p833
I1
sS'Kane'
p834
I1
sS'job'
p835
I2
sS'Malaysia'
p836
I1
sS'tour'
p837
I1
sS'workplace'
p838
I1
sS"'Aliens"
p839
I1
sS'wheels'
p840
I1
sS"can't"
p841
I1
sS'deported'
p842
I1
sS"'The"
p843
I3
sS'among'
p844
I2
sS'Jeremy'
p845
I3
sS'provocation'
p846
I1
sS'cancer'
p847
I1
sS'Jose'
p848
I1
sS'Sachs'
p849
I1
sS'61'
p850
I2
sS'grants'
p851
I1
sS'comeback'
p852
I1
sS'Pledges'
p853
I1
sS"Liverpool's"
p854
I1
sS'come'
p855
I1
sS'Downgrades'
p856
I1
sS'absence'
p857
I1
sS'Paid'
p858
I1
sS'Tanks'
p859
I1
sS'500'
p860
I1
sS'wants'
p861
I3
sS'Six'
p862
I8
sS'Luring'
p863
I1
sS'Trump-Russia'
p864
I2
sS'dramatic'
p865
I1
sS'Halts'
p866
I1
sS'former'
p867
I1
sS'4-0'
p868
I1
sS'Tesla'
p869
I3
sS'Birmingham'
p870
I1
sS'sex'
p871
I2
sS"coup'"
p872
I1
sS'career'
p873
I1
sS'Potential'
p874
I1
sS'Marshals'
p875
I1
sS'Open'
p876
I1
sS'Disappear'
p877
I1
sS'Slow'
p878
I1
sS'Stokes'
p879
I1
sS'Tennis'
p880
I1
sS'Referendum'
p881
I1
sS"Netflix's"
p882
I1
sS'Better'
p883
I1
sS'Charge'
p884
I1
sS'rally'
p885
I3
sS'Israel'
p886
I1
sS'Plans'
p887
I2
sS'media'
p888
I3
sS'Nashville'
p889
I1
sS'fewer'
p890
I1
sS'and\xe5\xcaapps'
p891
I1
sS'inquiry'
p892
I2
sS'Blood'
p893
I1
sS'Disappointed'
p894
I1
sS'week'
p895
I2
sS'finish'
p896
I2
sS'I'
I3
sS'Rowing'
p897
I1
sS'Barcelona'
p898
I4
sS'companion'
p899
I1
sS'producers'
p900
I1
sS'IRA'
p901
I1
sS"been'"
p902
I1
sS'ID'
p903
I1
sS'Own'
p904
I1
sS'Says'
p905
I9
sS'charges'
p906
I1
sS'Is'
p907
I4
sS'TV'
p908
I4
sS'accountable'
p909
I1
sS'In'
p910
I7
sS'If'
p911
I2
sS'duty'
p912
I1
sS'United'
p913
I4
sS'Service'
p914
I1
sS'Ways'
p915
I1
sS'Ping'
p916
I1
sS'actions'
p917
I1
sS'Reduction'
p918
I1
sS'kill'
p919
I1
sS'touch'
p920
I1
sS'Markets'
p921
I3
sS'EPA'
p922
I2
sS'announcement'
p923
I2
sS'death'
p924
I3
sS'asthma'
p925
I1
sS"'undermines"
p926
I1
sS"we've"
p927
I1
sS'Zuckerberg'
p928
I1
sS'Malek'
p929
I1
sS'treatment'
p930
I1
sS'aborts'
p931
I1
sS'Jong-nam'
p932
I3
sS'Jaziri'
p933
I1
sS'around'
p934
I3
sS'rules'
p935
I2
sS'Monk'
p936
I1
sS'gonna'
p937
I1
sS'early'
p938
I2
sS'mom'
p939
I1
sS'vacuum'
p940
I1
sS'world'
p941
I1
sS'SVP'
p942
I1
sS'Shark'
p943
I1
sS'Bellingham'
p944
I1
sS'intel'
p945
I1
sS'facing'
p946
I1
sS'hails'
p947
I1
sS'benefit'
p948
I1
sS'Something'
p949
I2
sS'Before'
p950
I2
sS'Democracy'
p951
I1
sS'West'
p952
I3
sS'Mark'
p953
I1
sS'roadshow\xe5\xcavideo'
p954
I1
sS'New'
p955
I8
sS'Swansea'
p956
I1
sS'Things'
p957
I1
sS'Attorney'
p958
I2
sS'dimensions'
p959
I1
sS'Prosecutions'
p960
I1
sS'legal'
p961
I1
sS'moon'
p962
I2
sS"'football"
p963
I1
sS'critical'
p964
I1
sS'Term'
p965
I1
sS'Hamann'
p966
I1
sS'leadership'
p967
I1
sS'Paire'
p968
I1
sS'went'
p969
I1
sS'on'
p970
I36
sS'Fabregas'
p971
I1
sS'of'
p972
I37
sS"Project'"
p973
I1
sS'Trade'
p974
I2
sS'Wednesbury'
p975
I1
sS'stand'
p976
I2
sS'Draymond'
p977
I1
sS'or'
p978
I3
sS'app\xe5\xcaBlind'
p979
I1
sS'organizers'
p980
I1
sS'quietly'
p981
I1
sS'No'
p982
I1
sS'Memories'
p983
I1
sS'Away'
p984
I1
sS'watchdog'
p985
I1
sS'your'
p986
I1
sS'Week'
p987
I3
sS'her'
p988
I2
sS'Norma'
p989
I1
sS'Jamie'
p990
I1
sS'start'
p991
I1
sS'low'
p992
I1
sS'lot'
p993
I1
sS'Obama'
p994
I1
sS'J'
I1
sS"gladiators'"
p995
I1
sS'Error'
p996
I1
sS'with'
p997
I11
sS'Guide'
p998
I1
sS'IICSA'
p999
I1
sS'hire'
p1000
I2
sS'Hales'
p1001
I1
sS'House'
p1002
I9
sS'Heseltine'
p1003
I1
sS'Foxes'
p1004
I2
sS'unveils'
p1005
I2
sS'Eddie'
p1006
I1
sS'Crisis'
p1007
I1
sS'Special'
p1008
I3
sS'Blow'
p1009
I1
sS'leaked'
p1010
I1
sS'Asks'
p1011
I1
sS'Space'
p1012
I7
sS'Gustavito'
p1013
I1
sS'al'
p1014
I1
sS'general'
p1015
I1
sS'How'
p1016
I4
sS'as'
p1017
I15
sS'reliability'
p1018
I1
sS'at'
p1019
I18
sS'enterprise-friendly'
p1020
I1
sS'politics'
p1021
I1
sS'pre-season'
p1022
I1
sS'Quavo'
p1023
I1
sS'in\xe5\xcaWeWork'
p1024
I1
sS'Burnley'
p1025
I2
sS"Pimco's"
p1026
I1
sS'Lab'
p1027
I1
sS'Dark'
p1028
I1
sS'8-year-old'
p1029
I1
sS'Watson'
p1030
I2
sS'Teases'
p1031
I1
sS'5'
I8
sS'you'
p1032
I1
sS'Ross'
p1033
I1
sS'Tottenham'
p1034
I1
sS'Kurdish'
p1035
I1
sS'Great'
p1036
I1
sS'Suffers'
p1037
I1
sS'Alex'
p1038
I2
sS'parkour'
p1039
I1
sS'students'
p1040
I1
sS'Hoppers'
p1041
I1
sS'Village'
p1042
I1
sS'Literary'
p1043
I1
sS'coverage'
p1044
I1
sS'CNN'
p1045
I27
sS'building'
p1046
I1
sS'mourned'
p1047
I1
sS'Major'
p1048
I1
sS'Vardy'
p1049
I1
sS"Moonlight'"
p1050
I1
sS'invest'
p1051
I1
sS'3-1'
p1052
I3
sS'Street'
p1053
I2
sS"'I"
p1054
I1
sS'Year'
p1055
I1
sS'Harassment'
p1056
I1
sS'all'
p1057
I1
sS'Van'
p1058
I1
sS'skeleton'
p1059
I1
sS'ESPN'
p1060
I2
sS'Tube'
p1061
I2
sS'Obamacare'
p1062
I5
sS'Moon'
p1063
I2
sS'Take'
p1064
I1
sS'talks'
p1065
I2
sS'carpet'
p1066
I2
sS'Brown'
p1067
I1
sS'Elli'
p1068
I1
sS'Championship'
p1069
I1
sS'gymnast'
p1070
I1
sS'NCAA'
p1071
I1
sS'insulate'
p1072
I1
sS'to'
p1073
I82
sS'lawmakers'
p1074
I1
sS'Backlash'
p1075
I1
sS'case'
p1076
I2
sS'very'
p1077
I1
sS'worst'
p1078
I1
sS'condition'
p1079
I1
sS"Don't"
p1080
I2
sS'celebrity'
p1081
I1
sS'Retire'
p1082
I1
sS'list'
p1083
I2
sS'Kill'
p1084
I2
sS'Carpet'
p1085
I1
sS'Impact'
p1086
I1
sS'grabs'
p1087
I1
sS'Should'
p1088
I1
sS'Ferrell'
p1089
I1
sS"Trump's"
p1090
I9
sS'what'
p1091
I4
sS'Korea'
p1092
I2
sS'Sportsday'
p1093
I1
sS'ovarian'
p1094
I1
sS"'too"
p1095
I1
sS'version'
p1096
I1
sS'Worked'
p1097
I1
sS'public'
p1098
I2
sS'full'
p1099
I1
sS'Prosecutors'
p1100
I1
sS'Ahead'
p1101
I2
sS'Briefing'
p1102
I1
sS'praises'
p1103
I1
sS'Bluster'
p1104
I1
sS'Laren'
p1105
I1
sS"'most"
p1106
I1
sS'Limos'
p1107
I1
sS'ahead'
p1108
I1
sS"Shell's"
p1109
I1
sS'airport'
p1110
I1
sS'breakdown'
p1111
I1
sS'action'
p1112
I1
sS'Border'
p1113
I1
sS'options'
p1114
I1
sS'S8'
p1115
I1
sS'S3'
p1116
I1
sS"Theory'"
p1117
I1
sS'Top'
p1118
I2
sS'Watergate-style'
p1119
I1
sS'screens'
p1120
I1
sS'ask'
p1121
I1
sS'send'
p1122
I1
sS'toys'
p1123
I1
sS'Climb'
p1124
I1
sS'select'
p1125
I1
sS'takes'
p1126
I2
sS'prebuttal'
p1127
I1
sS'two'
p1128
I3
sS'Peak'
p1129
I1
sS'Geert'
p1130
I1
sS"People's"
p1131
I1
sS'Russian'
p1132
I3
sS'injury'
p1133
I1
sS'more'
p1134
I4
sS'Boeing'
p1135
I1
sS'Hails'
p1136
I1
sS'company'
p1137
I1
sS'Wyatt'
p1138
I1
sS'American'
p1139
I1
sS'Roger'
p1140
I1
sS'known'
p1141
I1
sS'town'
p1142
I1
sS'Looking'
p1143
I2
sS'Now'
p1144
I2
sS'vs'
p1145
I1
sS'v'
I5
sS'Wade'
p1146
I2
sS'Your'
p1147
I2
sS'history'
p1148
I1
sS'Conference'
p1149
I1
sS'shark'
p1150
I1
sS"'untrue'"
p1151
I1
sS'Years'
p1152
I2
sS"agencies'"
p1153
I1
sS'needs'
p1154
I1
sS'Opening'
p1155
I1
sS'Bonus'
p1156
I2
sS'breaking'
p1157
I1
sS'reject'
p1158
I1
sS'before'
p1159
I1
sS'orchestrator'
p1160
I1
sS'Bankers'
p1161
I1
sS'Campaign-level'
p1162
I1
sS'tries'
p1163
I1
sS'CRISPR'
p1164
I1
sS'Kelly'
p1165
I3
sS'Syria'
p1166
I1
sS'Antarctic'
p1167
I1
sS'a'
I27
sS'Mexico'
p1168
I1
sS'Brennan'
p1169
I1
sS'Sean'
p1170
I1
sS'pay'
p1171
I1
sS'dream'
p1172
I1
sS'Film'
p1173
I1
sS'chicks'
p1174
I1
sS'What'
p1175
I2
sS"don't"
p1176
I1
sS'radar'
p1177
I1
sS'through'
p1178
I1
sS'committee'
p1179
I2
sS'Wilders'
p1180
I1
sS'its'
p1181
I2
sS'25'
p1182
I1
sS'27'
p1183
I1
sS'March'
p1184
I2
sS'21'
p1185
I1
sS'Stein'
p1186
I1
sS'late'
p1187
I1
sS'Kimi'
p1188
I1
sS'speech'
p1189
I3
sS'might'
p1190
I2
sS'alter'
p1191
I1
sS'Reaction'
p1192
I1
sS'return'
p1193
I1
sS'seeking'
p1194
I1
sS'propose'
p1195
I2
sS'Michael'
p1196
I2
sS'Worried'
p1197
I1
sS'framework'
p1198
I1
sS'foot'
p1199
I1
sS'Senior'
p1200
I1
sS'speculate'
p1201
I1
sS'bigger'
p1202
I1
sS'Pussycats'
p1203
I1
sS"'Islamofascism'"
p1204
I1
sS'always'
p1205
I1
sS'Aliens'
p1206
I1
sS'Potter'
p1207
I1
sS'IPO'
p1208
I3
sS'spy'
p1209
I1
sS'Council'
p1210
I1
sS'Scottish'
p1211
I1
sS"'renewal"
p1212
I1
sS'shocking'
p1213
I1
sS'Liam'
p1214
I1
sS"isn't"
p1215
I2
sS'status'
p1216
I1
sS'Co-Founders'
p1217
I1
sS'Tax'
p1218
I2
sS'Saints'
p1219
I2
sS'Joseph'
p1220
I1
sS'Surface'
p1221
I1
sS'Federer'
p1222
I1
sS"'Hundreds'"
p1223
I1
sS'More'
p1224
I4
sS'Lowest'
p1225
I1
sS'Picture'
p1226
I2
sS'dominates'
p1227
I1
sS'since'
p1228
I3
sS'waiting\xe5\xcafor'
p1229
I1
sS'publish'
p1230
I1
sS'health'
p1231
I2
sS'Israeli-Palestinian'
p1232
I1
sS'Report'
p1233
I1
sS"'scum'"
p1234
I1
sS"'must"
p1235
I1
sS'Ukraine'
p1236
I1
sS'timeline'
p1237
I1
sS'Nine'
p1238
I1
sS'members'
p1239
I1
sS'EU'
p1240
I1
sS'Serious'
p1241
I1
sS'teach'
p1242
I1
sS'Male'
p1243
I1
sS'Lavrov'
p1244
I1
sS'El'
p1245
I1
sS'owners'
p1246
I1
sS'benefits'
p1247
I1
sS'Evans'
p1248
I1
sS'People'
p1249
I4
sS'Boston'
p1250
I1
sS'modularity'
p1251
I1
sS'success'
p1252
I1
sS'George'
p1253
I1
sS'Past'
p1254
I1
sS'NASA'
p1255
I1
sS'Expect'
p1256
I1
sS'threat'
p1257
I1
sS'Elon'
p1258
I1
sS'fallen'
p1259
I1
sS'Dietmar'
p1260
I1
sS'Konta'
p1261
I1
sS'Goes'
p1262
I1
sS'Brexit\xe5\xcaBritain'
p1263
I1
sS'Triggs-Hodge'
p1264
I1
sS'press\xe5\xcaconference'
p1265
I1
sS'heads'
p1266
I1
sS'Cummings'
p1267
I1
sS'storm'
p1268
I1
sS'Everton'
p1269
I1
sS'selling'
p1270
I1
sS'Norkett'
p1271
I1
sS'the\xe5\xcarainbow'
p1272
I1
sS'Gamblers'
p1273
I1
sS'defends'
p1274
I1
sS'Officials'
p1275
I1
sS'marriage'
p1276
I1
sS'2022'
p1277
I1
sS'motivation'
p1278
I1
sS'nominee'
p1279
I3
sS'Movie'
p1280
I1
sS'SEAL'
p1281
I2
sS'Galaxy\xe5\xcaS8'
p1282
I1
sS'WBC'
p1283
I1
sS'Forge'
p1284
I1
sS'aged'
p1285
I2
sS'Supporters'
p1286
I1
sS'Power'
p1287
I1
sS'Food'
p1288
I1
sS'officers'
p1289
I1
sS'lifts'
p1290
I1
sS'Germany'
p1291
I2
sS"plots'"
p1292
I1
sS'Kim'
p1293
I5
sS'Junkyard'
p1294
I1
sS'With'
p1295
I5
sS'Spirit'
p1296
I1
sS'Remix'
p1297
I1
sS"correspondents'"
p1298
I2
sS'Episode'
p1299
I2
sS'eggs'
p1300
I1
sS'measures'
p1301
I1
sS"'Meg'"
p1302
I1
sS'Optimism'
p1303
I1
sS'most'
p1304
I1
sS'Chief'
p1305
I1
sS'plan'
p1306
I2
sS'70'
p1307
I1
sS'Coptic'
p1308
I1
sS'The'
p1309
I14
sS'Called'
p1310
I1
sS'Restore'
p1311
I1
sS'Google'
p1312
I3
sS'mobile'
p1313
I1
sS'Alexis'
p1314
I1
sS'attacking'
p1315
I1
sS'Cloud'
p1316
I1
sS"'brain"
p1317
I1
sS'Tillerson'
p1318
I1
sS"'at"
p1319
I1
sS'Had'
p1320
I1
sS'session'
p1321
I1
sS'Hill'
p1322
I2
sS'Flintoff'
p1323
I1
sS'global\xe5\xcacommunity'
p1324
I1
sS'Has'
p1325
I1
sS'costing'
p1326
I1
sS'impact'
p1327
I1
sS'rocket'
p1328
I1
sS'Premiere'
p1329
I1
sS'Jr'
p1330
I1
sS'failed'
p1331
I1
sS'8'
I2
sS'Pool'
p1332
I1
sS'giants'
p1333
I1
sS'sacking'
p1334
I3
sS'his'
p1335
I1
sS'dominant'
p1336
I1
sS'Ex-boxer'
p1337
I2
sS'banned'
p1338
I1
sS'While'
p1339
I1
sS'fastest'
p1340
I2
sS'Paxton'
p1341
I3
sS'during'
p1342
I3
sS'Hotspur'
p1343
I1
sS"'very"
p1344
I1
sS'Olympic'
p1345
I2
sS'Help'
p1346
I1
sS"Pence's"
p1347
I1
sS"'did"
p1348
I1
sS'bird'
p1349
I1
sS'investigate'
p1350
I2
sS'spiked'
p1351
I1
sS'Craig'
p1352
I1
sS'Lions'
p1353
I1
sS'Equating'
p1354
I1
sS'set'
p1355
I3
sS'For'
p1356
I1
sS'achieved'
p1357
I1
sS'National'
p1358
I2
sS'Fox'
p1359
I1
sS'Chaos'
p1360
I2
sS'France'
p1361
I2
sS'Auditions'
p1362
I1
sS'see'
p1363
I1
sS'are'
p1364
I6
sS'sea'
p1365
I1
sS'Correspondents'
p1366
I1
sS'Firms'
p1367
I1
sS'on\xe5\xcapricing'
p1368
I1
sS'pictures'
p1369
I1
sS'Blair'
p1370
I1
sS'won'
p1371
I1
sS'Clones'
p1372
I1
sS'probably'
p1373
I1
sS"'real"
p1374
I1
sS'Age'
p1375
I3
sS'King'
p1376
I1
sS'Blackburn'
p1377
I1
sS'Moroccans'
p1378
I1
sS'Could'
p1379
I3
sS'Florida'
p1380
I2
sS'Departs'
p1381
I1
sS'Anew'
p1382
I1
sS'Tale'
p1383
I1
sS'Jobs'
p1384
I1
sS'Mardi'
p1385
I1
sS'league'
p1386
I1
sS'Unexpected'
p1387
I1
sS'Neil'
p1388
I1
sS'Hard'
p1389
I1
sS"Snap's"
p1390
I2
sS"spirit'"
p1391
I1
sS'became'
p1392
I1
sS'Green'
p1393
I1
sS'Denies'
p1394
I2
sS'reasons'
p1395
I1
sS"'Twister'"
p1396
I1
sS'community'
p1397
I1
sS'Nobel'
p1398
I1
sS'Korbut'
p1399
I1
sS'agents'
p1400
I1
sS'Way'
p1401
I1
sS'000m'
p1402
I2
sS'suppressing'
p1403
I1
sS'War'
p1404
I1
sS'Shakes'
p1405
I2
sS'political'
p1406
I1
sS'due'
p1407
I1
sS'Difficulty'
p1408
I1
sS'Takeover'
p1409
I1
sS'California'
p1410
I1
sS'Plan'
p1411
I3
sS'meeting'
p1412
I1
sS'fret'
p1413
I1
sS'4'
I2
sS'cyclist'
p1414
I1
sS'nukes'
p1415
I1
sS'Allies'
p1416
I1
sS'1950s'
p1417
I1
sS'fire'
p1418
I1
sS'Newcastle'
p1419
I1
sS'Saudi'
p1420
I2
sS'Wolves'
p1421
I1
sS'Drops'
p1422
I1
sS'Commencement'
p1423
I1
sS'Old'
p1424
I1
sS'bill'
p1425
I2
sS'Reassure'
p1426
I1
sS'budget'
p1427
I3
sS'Snapchat'
p1428
I1
sS'Circling'
p1429
I1
sS'Cuts'
p1430
I2
sS'Market'
p1431
I2
sS'pack'
p1432
I1
sS'City'
p1433
I7
sS'Italy'
p1434
I4
sS'Threatens'
p1435
I2
sS'Strategy'
p1436
I1
sS"Holmes'"
p1437
I1
sS'Prison'
p1438
I1
sS'ready'
p1439
I1
sS'Millwall'
p1440
I2
sS'Bipartisan'
p1441
I1
sS'FAS'
p1442
I1
sS'Jumps'
p1443
I1
sS'Programs'
p1444
I1
sS'graves'
p1445
I1
sS'Rahman'
p1446
I1
sS'About'
p1447
I2
sS'used'
p1448
I1
sS'Immigrants'
p1449
I1
sS'moment'
p1450
I2
sS'000'
p1451
I4
sS'uses'
p1452
I1
sS"'died'"
p1453
I1
sS'Flight'
p1454
I1
sS'Project'
p1455
I1
sS'task'
p1456
I1
sS'Almost'
p1457
I2
sS'Miller'
p1458
I1
sS'Goodlatte'
p1459
I1
sS'Migration'
p1460
I1
sS'Oscars'
p1461
I11
sS'Manny'
p1462
I1
sS'withdraw'
p1463
I1
sS'Talks'
p1464
I1
sS'Girl'
p1465
I1
sS'clearance'
p1466
I1
sS'ambassador'
p1467
I1
sS'Takes'
p1468
I2
sS'Breadwinner'
p1469
I1
sS'settlements'
p1470
I2
sS'Labor'
p1471
I1
sS'press'
p1472
I1
sS'openly'
p1473
I1
sS"We're"
p1474
I1
sS'questions'
p1475
I2
sS'startups'
p1476
I1
sS'gems'
p1477
I1
sS'cut'
p1478
I1
sS'cup'
p1479
I1
sS'advisers'
p1480
I1
sS'workers'
p1481
I1
sS'Nokia'
p1482
I2
sS"'rare'"
p1483
I1
sS'win'
p1484
I4
sS'Marine'
p1485
I1
sS'On'
p1486
I2
sS'Faster'
p1487
I1
sS'demands'
p1488
I1
sS'contacts'
p1489
I1
sS"homes'"
p1490
I1
sS'game'
p1491
I2
sS'Behavioral'
p1492
I1
sS'Russiagate'
p1493
I1
sS"Israel's"
p1494
I1
sS'Christian'
p1495
I1
sS'carers'
p1496
I1
sS"Helmets'"
p1497
I1
sS'Skeleton'
p1498
I1
sS'flub'
p1499
I1
sS'ignore'
p1500
I2
sS"complicated'"
p1501
I1
sS'Little'
p1502
I1
sS"Lockheed's"
p1503
I1
sS'parade'
p1504
I2
sS'some'
p1505
I2
sS'back'
p1506
I2
sS'MWC'
p1507
I2
sS'Mourinho'
p1508
I1
sS'Andy'
p1509
I2
sS'30m'
p1510
I1
sS'Academical'
p1511
I1
sS'Bannon'
p1512
I1
sS'Dame'
p1513
I1
sS'Seoul'
p1514
I1
sS'Haass'
p1515
I1
sS'decision'
p1516
I1
sS'Hindenburg'
p1517
I1
sS'epic'
p1518
I1
sS"Here's"
p1519
I1
sS'be'
p1520
I7
sS'jumps'
p1521
I1
sS'Economics'
p1522
I1
sS'David'
p1523
I3
sS'Stopping'
p1524
I1
sS'Russia'
p1525
I11
sS'Sanchez'
p1526
I1
sS'Taylor'
p1527
I1
sS'anything'
p1528
I1
sS'streaming\xe5\xcaservice'
p1529
I1
sS'Roe'
p1530
I2
sS'range'
p1531
I1
sS'slams'
p1532
I1
sS"Won't"
p1533
I1
sS'Pong'
p1534
I1
sS'shiny'
p1535
I1
sS'Common'
p1536
I1
sS'Simon'
p1537
I1
sS'caretaker'
p1538
I1
sS'into'
p1539
I1
sS'Young'
p1540
I1
sS'Their'
p1541
I4
sS'Flights'
p1542
I1
sS'Speech'
p1543
I2
sS'\xdb\xaas\xe5\xcaflagships'
p1544
I1
sS'spending'
p1545
I1
sS'Anthony'
p1546
I1
sS'Coverage'
p1547
I1
sS'Gerald'
p1548
I1
sS'forward'
p1549
I1
sS'Bond'
p1550
I1
sS'Fly'
p1551
I1
sS'Sutton'
p1552
I1
sS'0-0'
p1553
I1
sS'0-1'
p1554
I1
sS'immigration'
p1555
I1
sS'Raikkonen'
p1556
I1
sS'glamour'
p1557
I1
sS"miracle'"
p1558
I1
sS'ceremonies'
p1559
I1
sS'\xe5'
I1
sS'Office'
p1560
I1
sS'Jeff'
p1561
I2
sS'Twitter'
p1562
I1
sS'Indoor'
p1563
I1
sS'up'
p1564
I8
sS'Murray'
p1565
I2
sS'Offers'
p1566
I1
sS'prosecutor'
p1567
I2
sS'called'
p1568
I1
sS'36-15'
p1569
I1
sS'constant'
p1570
I1
sS'Ambitions'
p1571
I1
sS'Needed'
p1572
I1
sS'Attack'
p1573
I2
sS'warning'
p1574
I1
sS'Snap'
p1575
I1
sS'presides'
p1576
I1
sS"changes'"
p1577
I1
sS'Murder'
p1578
I1
sS'May'
p1579
I3
sS'peace'
p1580
I1
sS'fears'
p1581
I1
sS'backs'
p1582
I1
sS'club'
p1583
I1
sS'Wasted'
p1584
I1
sS'Man'
p1585
I5
sS'Red'
p1586
I3
sS'mastermind'
p1587
I1
sS'Cash'
p1588
I1
sS'resign'
p1589
I1
sS'Moonlight'
p1590
I4
sS"soar'"
p1591
I1
sS'Derby'
p1592
I1
sS'Riverdale'
p1593
I1
sS"Salvador's"
p1594
I1
sS'urged'
p1595
I1
sS'Confirms'
p1596
I1
sS'Uzi'
p1597
I1
sS'Tunisia'
p1598
I1
sS'As'
p1599
I1
sS'Scott'
p1600
I1
sS'2005'
p1601
I1
sS'far'
p1602
I1
sS"back'"
p1603
I1
sS'mix-up'
p1604
I3
sS'Sell'
p1605
I1
sS'Ibrahimovic'
p1606
I2
sS'softer'
p1607
I1
sS'Department'
p1608
I2
sS'Bulls'
p1609
I1
sS'issues'
p1610
I2
sS'breached'
p1611
I1
sS'Netanyahu'
p1612
I3
sS'Not'
p1613
I3
sS"'Go"
p1614
I1
sS'include'
p1615
I1
sS'meetings'
p1616
I2
sS'Albion'
p1617
I1
sS'P'
I1
sS'Risks'
p1618
I1
sS'free-kick'
p1619
I1
sS'Staking'
p1620
I1
sS'touchline'
p1621
I1
sS"help'"
p1622
I1
sS'Investors'
p1623
I1
sS'Brisbane'
p1624
I2
sS"Leicester'"
p1625
I1
sS'populist'
p1626
I1
sS'Defense'
p1627
I1
sS'Stings'
p1628
I1
sS'car'
p1629
I2
sS"Uber's"
p1630
I2
sS'ceasefire'
p1631
I1
sS'Theranos'
p1632
I1
sS'Spending'
p1633
I1
sS'flu'
p1634
I1
sS'Vehicle'
p1635
I1
sS'Tax-Reporting'
p1636
I1
sS'State'
p1637
I4
sS'video'
p1638
I1
sS'Organization'
p1639
I1
sS'concludes'
p1640
I1
sS'Brace'
p1641
I1
sS'honors'
p1642
I1
sS'Governors'
p1643
I2
sS'Hammond'
p1644
I1
sS'cell'
p1645
I1
sS'Gestede'
p1646
I1
sS'Video'
p1647
I27
sS'America'
p1648
I1
sS'Former'
p1649
I2
sS'Might'
p1650
I1
sS'Thrives'
p1651
I1
sS'led'
p1652
I1
sS'stance'
p1653
I1
sS'Startup'
p1654
I2
sS'poverty'
p1655
I1
sS'Commonwealth'
p1656
I1
sS'Chinese'
p1657
I2
sS'Energy'
p1658
I1
sS'30'
p1659
I1
sS'Back'
p1660
I1
sS'Fortunes'
p1661
I1
sS'Vietnam'
p1662
I1
sS'addresses'
p1663
I1
sS'Doctor'
p1664
I1
sS"'get"
p1665
I1
sS'app'
p1666
I1
sS'Farah'
p1667
I1
sS'private'
p1668
I1
sS'FA'
p1669
I7
sS'Hove'
p1670
I1
sS'from'
p1671
I5
sS'Ernie'
p1672
I1
sS'Attend'
p1673
I1
sS'Driver'
p1674
I1
sS'NATO'
p1675
I1
sS'cheeky'
p1676
I1
sS'Land'
p1677
I2
sS'started'
p1678
I1
sS'baby'
p1679
I1
sS'Guy'
p1680
I2
sS'women'
p1681
I1
sS'customer'
p1682
I1
sS'F1'
p1683
I2
sS'account'
p1684
I1
sS'this'
p1685
I2
sS'challenge'
p1686
I1
sS"unfairly'"
p1687
I1
sS'meet'
p1688
I1
sS'process'
p1689
I2
sS'high'
p1690
I1
sS'Liberation'
p1691
I1
sS"'set"
p1692
I1
sS'Policy'
p1693
I1
sS'Party'
p1694
I1
sS"'ready"
p1695
I1
sS'democracy'
p1696
I1
sS"'Beauty"
p1697
I1
sS'Warrington'
p1698
I2
sS'winners'
p1699
I2
sS'unites'
p1700
I1
sS'UK'
p1701
I2
sS'attend'
p1702
I1
sS'British'
p1703
I2
sS'abuse'
p1704
I4
sS'ethnic'
p1705
I1
sS'Donnell'
p1706
I2
sS'Uber'
p1707
I5
sS'Politico'
p1708
I1
sS"'determined"
p1709
I1
sS'robot'
p1710
I1
sS'One'
p1711
I1
sS'Blackpool'
p1712
I1
sS'Reputation'
p1713
I1
sS'Tablets'
p1714
I1
sS'six-year'
p1715
I1
sS'Ginsburg'
p1716
I1
sS'move'
p1717
I1
sS"king's"
p1718
I1
sS'Supernatural'
p1719
I1
sS'looks'
p1720
I1
sS'Hearts'
p1721
I1
sS'Orbiting'
p1722
I1
sS'Match'
p1723
I2
sS'Ayr'
p1724
I1
sS"'strongly"
p1725
I1
sS"'cash"
p1726
I1
sS'Paperwork'
p1727
I1
sS'exclusion'
p1728
I1
sS'nostalgia'
p1729
I1
sS'labor'
p1730
I1
sS'Director'
p1731
I1
sS'Championships'
p1732
I3
sS'2018'
p1733
I4
sS'2017'
p1734
I19
sS'2016'
p1735
I4
sS'dad'
p1736
I1
sS'Dubai'
p1737
I5
sS'crash'
p1738
I2
sS'Car'
p1739
I1
sS'Hungry'
p1740
I1
sS'Preside'
p1741
I1
sS'Can'
p1742
I2
sS'day'
p1743
I4
sS'presidential'
p1744
I1
sS'Summer'
p1745
I1
sS'bills'
p1746
I1
sS'Weekly'
p1747
I3
sS'From'
p1748
I2
sS'doing'
p1749
I2
sS'Next'
p1750
I3
sS'80'
p1751
I2
sS'sexual'
p1752
I2
sS'special'
p1753
I2
sS'out'
p1754
I2
sS"Ferrari's"
p1755
I1
sS'Vert'
p1756
I1
sS"'"
I4
sS'CEO'
p1757
I3
sS'Heir'
p1758
I1
sS"nationalism'"
p1759
I1
sS'China'
p1760
I4
sS'Nearly'
p1761
I1
sS'Trying'
p1762
I1
sS'supports'
p1763
I1
sS'red'
p1764
I2
sS'Vern'
p1765
I1
sS'disclose'
p1766
I2
sS'cricketer'
p1767
I1
sS'This'
p1768
I4
sS'transfer'
p1769
I1
sS'Surge'
p1770
I1
sS'basics\xe5\xcaoff-screen'
p1771
I1
sS'Ryan'
p1772
I3
sS'A4109'
p1773
I1
sS'Senator'
p1774
I1
sS'Spend'
p1775
I2
sS'allies'
p1776
I1
sS'Durban'
p1777
I1
sS'Point'
p1778
I1
sS'Madrid'
p1779
I1
sS'could'
p1780
I2
sS'times'
p1781
I1
sS'Drone'
p1782
I1
sS'Aides'
p1783
I1
sS'Superbugs'
p1784
I1
sS"'soft"
p1785
I1
sS'there'
p1786
I1
sS'Review'
p1787
I1
sS"Paxton's"
p1788
I1
sS'reaches'
p1789
I1
sS"Italy's"
p1790
I1
sS'prank'
p1791
I2
sS'Boris'
p1792
I1
sS'has'
p1793
I1
sS'North'
p1794
I2
sS'Eastern'
p1795
I1
sS'Shane'
p1796
I1
sS'Funds'
p1797
I2
sS'Chokes'
p1798
I1
sS'their'
p1799
I2
sS'attack'
p1800
I2
sS'Last-Minute'
p1801
I1
sS'declines'
p1802
I1
sS"Scotland's"
p1803
I1
sS'Stocks'
p1804
I2
sS'Vargas'
p1805
I1
sS'final'
p1806
I3
sS'2-2'
p1807
I1
sS'Lincoln'
p1808
I3
sS'nobody'
p1809
I1
sS'Democratic'
p1810
I2
sS'Bolton'
p1811
I1
sS'Pound'
p1812
I1
sS'Siri'
p1813
I1
sS'fake\xe5\xcanews'
p1814
I1
sS'compensation'
p1815
I1
sS'Diverse'
p1816
I1
sS'loves'
p1817
I1
sS'Psaki'
p1818
I1
sS"Facebook's"
p1819
I1
sS'Inquest'
p1820
I1
sS'recuse'
p1821
I1
sS'Richard'
p1822
I1
sS'have'
p1823
I3
sS'need'
p1824
I1
sS'border'
p1825
I1
sS'preps'
p1826
I1
sS'Spat'
p1827
I1
sS'Independent'
p1828
I1
sS"'Moonlight'"
p1829
I2
sS'Goldman'
p1830
I3
sS'After'
p1831
I5
sS'battles'
p1832
I1
sS'mix'
p1833
I1
sS'demolished'
p1834
I1
sS'so'
p1835
I1
sS'medals'
p1836
I1
sS'savages'
p1837
I1
sS'agenda'
p1838
I1
sS'who'
p1839
I1
sS'Titanic'
p1840
I1
sS'Without'
p1841
I2
sS'Games'
p1842
I1
sS'Mercedes'
p1843
I1
sS"'radical"
p1844
I1
sS'Lock'
p1845
I1
sS'Some'
p1846
I1
sS'face'
p1847
I2
sS'Donald'
p1848
I3
sS'Growth'
p1849
I1
sS'Earth'
p1850
I1
sS'USC'
p1851
I1
sS'Dem'
p1852
I1
sS'text'
p1853
I1
sS'bring'
p1854
I1
sS'Under'
p1855
I1
sS'rough'
p1856
I1
sS'feat'
p1857
I1
sS'debate'
p1858
I1
sS'decade'
p1859
I1
sS'staff'
p1860
I1
sS'Thrones'
p1861
I1
sS'sparks'
p1862
I1
sS'Khan'
p1863
I1
sS'winner'
p1864
I2
sS'should'
p1865
I3
sS'terminal'
p1866
I1
sS'Sons'
p1867
I1
sS'York'
p1868
I2
sS'thousands'
p1869
I2
sS'day-old'
p1870
I1
sS'Ngo'
p1871
I1
sS'19-9'
p1872
I1
sS"'giving"
p1873
I1
sS'joint'
p1874
I1
sS'burglary'
p1875
I1
sS'second-half'
p1876
I1
sS'Dial'
p1877
I1
sS'Because'
p1878
I1
sS"'don't"
p1879
I1
sS'calling'
p1880
I2
sS'Wall'
p1881
I1
sS"manager's"
p1882
I1
sS'she'
p1883
I1
sS'allegation'
p1884
I1
sS'Ps'
p1885
I1
sS'temporarily'
p1886
I1
sS"Oxford's"
p1887
I1
sS'frame'
p1888
I1
sS"'carjacking'"
p1889
I2
sS'officials'
p1890
I2
sS'signed'
p1891
I2
sS'closes'
p1892
I1
sS'Arrives'
p1893
I1
sS'Sinks'
p1894
I1
sS'Seconds'
p1895
I1
sS'nuclear'
p1896
I1
sS'Hike'
p1897
I3
sS'Lynch-Clinton'
p1898
I1
sS'PI'
p1899
I1
sS'email'
p1900
I2
sS'PM'
p1901
I1
sS"'soldiers"
p1902
I1
sS'S'
I11
sS'Himself'
p1903
I2
sS'EFL'
p1904
I2
sS'key'
p1905
I2
sS'hits'
p1906
I3
sS'admin'
p1907
I1
sS'Dreamed'
p1908
I1
sS'drug'
p1909
I1
sS'rams'
p1910
I1
sS'Indies'
p1911
I2
sS'volley'
p1912
I1
sS'Dynamics'
p1913
I1
sS'heart'
p1914
I1
sS'withdraws'
p1915
I3
sS'Her'
p1916
I1
sS'Haye'
p1917
I1
sS'life\xe5\xcasupport'
p1918
I1
sS'Garry'
p1919
I1
sS'respect'
p1920
I1
sS"Women's"
p1921
I1
sS'Rewards'
p1922
I1
sS'trademark'
p1923
I1
sS'Immigration'
p1924
I1
sS'responds'
p1925
I1
sS'permanent'
p1926
I1
sS'Speak'
p1927
I1
sS'reshape'
p1928
I1
sS'Center'
p1929
I1
sS'Puzder'
p1930
I1
sS'overwhelmingly'
p1931
I1
sS'kickers'
p1932
I1
sS'Nations'
p1933
I7
sS"doesn't"
p1934
I1
sS'Credit'
p1935
I1
sS'kicks'
p1936
I1
sS'Jason'
p1937
I1
sS'an'
p1938
I2
sS'And'
p1939
I1
sS'Force'
p1940
I1
sS'Warns'
p1941
I3
sS'Hot'
p1942
I1
sS'General'
p1943
I2
sS'will'
p1944
I4
sS"America's"
p1945
I2
sS'Troops'
p1946
I1
sS'bicker'
p1947
I1
sS'almost'
p1948
I1
sS'Celtic'
p1949
I1
sS'rips'
p1950
I1
sS'Shackled'
p1951
I1
sS"Russia's"
p1952
I2
sS'You'
p1953
I4
sS'Singhal'
p1954
I1
sS'Briton'
p1955
I1
sS'Beat'
p1956
I1
sS'administration'
p1957
I2
sS'Insults'
p1958
I1
sS'staff-wide\xe5\xcaemail'
p1959
I1
sS'Golf'
p1960
I1
sS'gets'
p1961
I1
sS'injured'
p1962
I2
sS'Entire'
p1963
I1
sS'1-0'
p1964
I4
sS'Coral'
p1965
I1
sS'1-2'
p1966
I2
sS'off'
p1967
I5
sS'Senate'
p1968
I1
sS'Aberdeen'
p1969
I1
sS'Muir'
p1970
I2
sS'thought'
p1971
I2
sS'Have'
p1972
I2
sS'Need'
p1973
I1
sS'realised'
p1974
I1
sS'taller'
p1975
I1
sS'Entitlement'
p1976
I1
sS'less'
p1977
I1
sS'Liftoff'
p1978
I1
sS'Access'
p1979
I1
sS'Care'
p1980
I1
sS'Shale'
p1981
I1
sS'Flynn'
p1982
I1
sS'Gill'
p1983
I1
sS'Be'
p1984
I3
sS'field'
p1985
I1
sS'Kraft'
p1986
I1
sS'By'
p1987
I1
sS'tests'
p1988
I1
sS'Launch'
p1989
I1
sS'checking'
p1990
I1
sS'Dinner'
p1991
I1
sS'historic'
p1992
I1
sS'five'
p1993
I2
sS'know'
p1994
I2
sS'Salazar'
p1995
I1
sS'Release'
p1996
I1
sS'Fallen'
p1997
I1
sS'England'
p1998
I9
sS'helpful'
p1999
I1
sS'lost'
p2000
I1
sS'loses'
p2001
I1
sS'lose'
p2002
I1
sS'leaves'
p2003
I1
sS'Dustin'
p2004
I1
sS'refugees'
p2005
I1
sS'because'
p2006
I1
sS'Climate'
p2007
I1
sS"There's"
p2008
I1
sS'home'
p2009
I2
sS'Jonathan'
p2010
I1
sS'breathing\xe5\xcapatterns'
p2011
I1
sS'Claims'
p2012
I2
sS'Singapore'
p2013
I1
sS'Was'
p2014
I1
sS'does'
p2015
I1
sS'Bull'
p2016
I1
sS'Inside'
p2017
I1
sS'Official'
p2018
I1
sS'Up'
p2019
I2
sS'Us'
p2020
I3
sS'Pence'
p2021
I3
sS'Un'
p2022
I1
sS'Planned'
p2023
I1
sS'baffling'
p2024
I1
sS'stage'
p2025
I3
sS'about'
p2026
I5
sS'getting'
p2027
I1
sS'US'
p2028
I11
sS"Statham's"
p2029
I1
sS'UN'
p2030
I2
sS'on-stage'
p2031
I1
sS'urges'
p2032
I1
sS'fatally'
p2033
I1
sS'Really'
p2034
I1
sS'Passes'
p2035
I1
sS'Two'
p2036
I2
sS'included'
p2037
I1
sS'Labour'
p2038
I2
sS'female'
p2039
I1
sS'Insurers'
p2040
I1
sS'Awareness'
p2041
I1
sS'Bingham'
p2042
I1
sS"Foxes'"
p2043
I2
sS'Abdel-Rahman'
p2044
I1
sS'Assistant'
p2045
I1
sS'Spell'
p2046
I1
sS'Upon'
p2047
I1
sS'Child'
p2048
I1
sS'Rejection'
p2049
I1
sS'chatting'
p2050
I1
sS'Losses'
p2051
I1
sS'agrees'
p2052
I1
sS'but'
p2053
I1
sS'goals'
p2054
I2
sS"Flynn's"
p2055
I1
sS'highest'
p2056
I1
sS'Chelsea'
p2057
I1
sS'he'
p2058
I6
sS'made'
p2059
I1
sS'tactics'
p2060
I1
sS'calls'
p2061
I4
sS'Proposed'
p2062
I1
sS'whether'
p2063
I1
sS'Zlatan'
p2064
I1
sS'record'
p2065
I3
sS'chairmanship'
p2066
I1
sS'limit'
p2067
I1
sS'Tes'
p2068
I1
sS'Insurance'
p2069
I1
sS'CIA'
p2070
I1
sS'Garth'
p2071
I1
sS'twist'
p2072
I1
sS'beats'
p2073
I3
sS'websites'
p2074
I1
sS'flight'
p2075
I1
sS'champion'
p2076
I1
sS'Utd'
p2077
I1
sS'Sessions'
p2078
I7
sS'86'
p2079
I1
sS'Million'
p2080
I3
sS'Dictators'
p2081
I1
sS'Delivery'
p2082
I1
sS'Islamic'
p2083
I1
sS'other'
p2084
I1
sS'Five'
p2085
I1
sS"'Terrorism"
p2086
I1
sS'Pietersen'
p2087
I1
sS'conclusion'
p2088
I1
sS'convicts'
p2089
I1
sS'Like'
p2090
I1
sS'stay'
p2091
I1
sS'April'
p2092
I1
sS'Future'
p2093
I1
sS'U'
I10
sS'Morgan'
p2094
I1
sS'Lose'
p2095
I1
sS'repeal'
p2096
I1
sS'friends'
p2097
I1
sS'South'
p2098
I1
sS'Private'
p2099
I1
sS'Ruck-gate'
p2100
I1
ssS'_mapping'
p2101
(dp2102
g18
I1600
sg19
I467
sg20
I1806
sg21
I115
sg22
I1173
sg23
I73
sg24
I44
sg25
I787
sg26
I315
sg27
I1009
sg28
I1351
sg29
I1398
sg30
I1231
sg31
I149
sg32
I713
sg33
I1324
sg34
I2068
sg35
I1199
sg36
I1914
sg37
I939
sg38
I1845
sg39
I758
sg40
I1591
sg41
I1870
sg42
I1780
sg43
I357
sg44
I1916
sg45
I391
sg46
I1768
sg47
I1074
sg48
I1474
sg49
I1670
sg50
I198
sg51
I1069
sg52
I2095
sS'A'
I1505
sg53
I419
sg54
I1203
sg55
I1159
sg56
I1512
sg57
I1419
sg58
I1336
sg59
I1362
sg60
I340
sg61
I1207
sg62
I1437
sg63
I1088
sg64
I1525
sg65
I140
sg66
I1018
sg67
I2032
sg68
I322
sg69
I1998
sg70
I801
sg71
I514
sg72
I1948
sg73
I63
sg74
I889
sg75
I1986
sg76
I1812
sg77
I2066
sg78
I2034
sg79
I919
sg80
I1328
sg81
I1321
sg82
I1082
sg83
I729
sg84
I946
sg85
I54
sg86
I143
sg87
I458
sg88
I180
sg89
I1726
sg90
I1183
sg91
I1412
sg92
I1887
sg93
I776
sg94
I849
sg95
I427
sg96
I1576
sg97
I698
sg98
I1763
sg99
I403
sg100
I1956
sg101
I134
sg102
I867
sg103
I170
sg104
I478
sg105
I1785
sg106
I2055
sg107
I673
sg108
I945
sg109
I564
sg110
I251
sg111
I33
sg112
I624
sg113
I325
sg114
I832
sg115
I129
sg116
I1115
sg117
I1504
sg118
I1016
sg119
I584
sg120
I1033
sg121
I2070
sg122
I2018
sg123
I1093
sg124
I1086
sg125
I1392
sg126
I462
sg127
I1301
sg128
I4
sg129
I1937
sg130
I1762
sg131
I1739
sg132
I802
sg133
I92
sg134
I1943
sg135
I715
sg136
I55
sg137
I1084
sg138
I1359
sg139
I93
sg140
I1048
sg141
I442
sg142
I1823
sg143
I1006
sg144
I203
sg145
I1194
sg146
I1007
sg147
I329
sg148
I1999
sg149
I982
sg150
I1485
sg151
I1993
sg152
I1205
sg153
I1572
sg154
I1236
sg155
I1606
sg156
I1985
sg157
I749
sg158
I1890
sg159
I639
sg160
I323
sg161
I1132
sg162
I1848
sg163
I192
sg164
I891
sg165
I1824
sg166
I1921
sg167
I121
sg168
I971
sg169
I1261
sg170
I807
sg171
I714
sg172
I1949
sg173
I69
sg174
I1038
sg175
I1019
sg176
I1347
sg177
I898
sg178
I132
sg179
I1253
sg180
I2084
sg181
I275
sg182
I1605
sg183
I1913
sg184
I1274
sg185
I1808
sg186
I319
sg187
I311
sg188
I1797
sg189
I1800
sS'W'
I1501
sg190
I1422
sg191
I781
sg192
I1520
sg193
I1123
sg194
I137
sg195
I605
sg196
I1214
sg197
I1259
sg198
I836
sg199
I706
sg200
I570
sg201
I844
sg202
I1545
sg203
I538
sg204
I349
sg205
I2099
sg12
I0
sg206
I1478
sg207
I870
sg208
I1228
sg209
I2077
sg210
I529
sg211
I1776
sg212
I643
sg213
I89
sg214
I210
sg215
I1061
sg216
I1327
sg217
I1580
sg218
I842
sg219
I1266
sg220
I1905
sg221
I476
sg222
I1024
sg223
I412
sg224
I209
sg225
I155
sS'-'
I14
sg226
I1926
sg227
I977
sg228
I23
sg229
I788
sg230
I1046
sg231
I289
sg232
I1747
sg233
I1417
sg234
I655
sg235
I1517
sg236
I9
sg237
I1361
sg238
I384
sg239
I1884
sg240
I783
sg241
I912
sg242
I563
sg243
I1113
sg244
I1330
sg245
I525
sg246
I1757
sg247
I342
sg248
I426
sg249
I1381
sg250
I125
sg251
I1612
sg252
I1287
sg253
I1095
sg254
I1102
sg255
I461
sg256
I1240
sg257
I580
sg258
I1030
sg259
I523
sg260
I520
sg261
I112
sg262
I1894
sg263
I1893
sg264
I528
sg265
I1491
sg266
I1136
sg267
I1075
sg268
I1224
sg269
I29
sg270
I1014
sg271
I1165
sg272
I1154
sg273
I699
sS'X'
I501
sg274
I1339
sg275
I1530
sg276
I2091
sg277
I1858
sg278
I1252
sg279
I1302
sg280
I841
sg281
I2058
sg282
I85
sg283
I1656
sg284
I1186
sg285
I585
sg286
I1912
sg287
I416
sg288
I983
sg289
I195
sg290
I1976
sg291
I1125
sg292
I785
sg293
I394
sg294
I941
sg295
I1562
sg296
I909
sg297
I388
sg298
I277
sg299
I646
sg300
I1767
sg301
I1257
sg302
I738
sg303
I1278
sg304
I591
sg305
I389
sg306
I1255
sg307
I1646
sg308
I1555
sg309
I1798
sg310
I96
sg311
I444
sg312
I917
sg313
I411
sg314
I1493
sg315
I1303
sg316
I1473
sg317
I1714
sg318
I1969
sg319
I690
sg320
I797
sg321
I141
sg322
I1819
sg323
I1657
sg324
I1556
sg325
I1371
sg326
I177
sg327
I216
sg328
I782
sg329
I222
sg330
I2097
sg331
I999
sg332
I1759
sg333
I285
sg334
I1471
sg335
I1020
sg336
I1587
sg337
I577
sg338
I341
sg339
I1588
sg340
I1323
sg341
I254
sg342
I2054
sg343
I1733
sg344
I518
sg345
I503
sg346
I986
sg347
I1924
sg348
I1964
sg349
I294
sg350
I361
sg351
I571
sg352
I1483
sg353
I1342
sg354
I1124
sg355
I91
sg356
I382
sg357
I231
sg358
I1502
sg359
I1537
sg360
I46
sg361
I1850
sg362
I2085
sg363
I1000
sg364
I1946
sg365
I280
sg366
I1898
sg367
I1176
sg368
I1459
sg369
I684
sg370
I151
sg371
I2037
sg372
I1915
sg373
I1804
sg374
I875
sg375
I1715
sg376
I1979
sg377
I418
sg378
I1553
sg379
I456
sg380
I1748
sg381
I789
sg382
I1904
sg383
I902
sg384
I26
sg385
I378
sg386
I1519
sg387
I979
sg388
I200
sg389
I40
sg390
I2036
sg391
I1143
sg392
I43
sg393
I2078
sg394
I431
sg395
I644
sg396
I1304
sg397
I817
sg398
I1730
sg399
I1815
sg400
I446
sg401
I1967
sg402
I1554
sg403
I740
sg404
I1
sg405
I1465
sg406
I1971
sg407
I645
sg408
I828
sg409
I100
sg410
I105
sg411
I1012
sg412
I1308
sg413
I37
sg414
I728
sg415
I965
sg416
I1497
sg417
I1977
sg418
I212
sg419
I225
sg420
I1067
sg421
I1418
sg422
I906
sg423
I1151
sg424
I477
sg425
I556
sg426
I110
sg427
I240
sg428
I296
sg429
I823
sg430
I2080
sg431
I878
sg432
I1643
sg433
I1060
sg434
I546
sg435
I933
sg436
I236
sg437
I57
sg438
I689
sg439
I1256
sg440
I575
sg441
I607
sg442
I1223
sg443
I1221
sg444
I433
sg445
I1408
sg446
I1907
sg447
I343
sg448
I1990
sg449
I1608
sg450
I1498
sg451
I385
sg452
I1246
sg453
I1108
sg454
I392
sg455
I756
sg456
I1325
sg457
I232
sg458
I1073
sg459
I273
sg460
I879
sg461
I1795
sg462
I951
sg463
I619
sg464
I625
sg465
I1051
sg466
I1284
sg467
I2102
sg468
I1188
sg469
I1838
sg470
I771
sg471
I1565
sg472
I1326
sg473
I318
sg474
I413
sg475
I2049
sg476
I1332
sg477
I1297
sg478
I680
sg479
I1200
sg480
I1970
sg481
I1104
sg482
I1983
sg483
I1630
sg484
I1455
sg485
I1634
sg486
I61
sg487
I79
sg488
I925
sg489
I733
sg490
I1532
sg491
I368
sg492
I1446
sg493
I1126
sg494
I1293
sg495
I331
sg496
I1896
sg497
I274
sg498
I910
sg499
I452
sg500
I936
sg501
I1466
sg502
I1740
sg503
I753
sg504
I1239
sg505
I333
sg506
I1711
sg507
I1805
sg508
I1317
sg509
I117
sg510
I2012
sg511
I839
sg512
I691
sg513
I685
sg514
I800
sg515
I972
sg516
I647
sg517
I1182
sg518
I1660
sg519
I1547
sg520
I1344
sg521
I234
sg522
I1936
sg523
I1827
sg524
I1243
sg525
I701
sg526
I1451
sg527
I664
sg528
I751
sg529
I138
sg530
I1669
sg531
I1721
sg532
I894
sg533
I288
sS'\xdb'
I566
sg534
I17
sg535
I1089
sg536
I1844
sg537
I1122
sg538
I193
sg539
I235
sg540
I1189
sg541
I764
sg542
I978
sg543
I1402
sg544
I792
sg545
I763
sg546
I955
sg547
I672
sg548
I1367
sg549
I663
sg550
I1781
sg551
I581
sg552
I118
sg553
I1566
sg554
I674
sg555
I1097
sg556
I194
sg557
I260
sg558
I1258
sg559
I353
sg560
I990
sg561
I352
sg562
I417
sg563
I258
sg564
I253
sg565
I440
sg566
I1447
sg567
I1552
sg568
I122
sg569
I1484
sg570
I1133
sg571
I716
sg572
I1984
sg573
I1436
sg574
I1450
sg575
I1346
sg576
I2074
sg577
I1157
sg578
I711
sg579
I429
sg580
I1868
sg581
I1628
sg582
I1631
sg583
I1839
sg584
I491
sg585
I1388
sg586
I227
sg587
I692
sg588
I188
sg589
I1081
sg590
I104
sg591
I109
sg592
I900
sg593
I623
sg594
I309
sg595
I1380
sg596
I736
sg597
I1305
sg598
I1755
sg599
I66
sg600
I228
sg601
I510
sg602
I1118
sg603
I1699
sg604
I1047
sg605
I1857
sg606
I2088
sg607
I1867
sg608
I1578
sg609
I393
sg610
I2004
sg611
I515
sg612
I1071
sg613
I366
sg614
I1312
sg615
I449
sg616
I2043
sg617
I1909
sg618
I1927
sg619
I1410
sg620
I598
sg621
I907
sg622
I337
sg623
I1120
sg624
I869
sg625
I369
sg626
I1675
sg627
I1511
sg628
I1230
sg629
I1756
sg630
I1917
sg631
I723
sS'1'
I377
sg632
I358
sg633
I1881
sg634
I32
sg635
I267
sg636
I113
sg637
I1015
sg638
I1678
sg639
I168
sg640
I90
sg641
I397
sg642
I640
sg643
I1273
sg644
I1666
sg645
I1382
sg646
I786
sg647
I409
sg648
I1509
sg649
I1098
sg650
I1467
sg651
I686
sg652
I1817
sg653
I846
sg654
I2053
sg655
I882
sg656
I221
sg657
I1919
sg658
I987
sg659
I326
sg660
I1908
sg661
I1399
sg662
I1040
sg663
I1765
sg664
I1862
sg665
I2001
sg666
I1594
sg667
I1462
sg668
I956
sg669
I1736
sg670
I1842
sg671
I1625
sg672
I1372
sg673
I488
sg674
I1648
sg675
I1260
sg676
I30
sg677
I423
sg678
I1989
sg679
I709
sg680
I174
sg681
I1975
sg682
I1423
sg683
I1068
sg684
I1617
sg685
I131
sg686
I339
sg687
I1225
sg688
I856
sg689
I2098
sg690
I531
sg691
I1761
sg692
I1732
sg693
I554
sg694
I855
sg695
I345
sg696
I465
sg697
I1717
sg698
I146
sg699
I739
sg700
I438
sg701
I995
sg702
I184
sg703
I1488
sg704
I279
sg705
I1997
sg706
I1111
sg707
I265
sg708
I1906
sg709
I1384
sg710
I1021
sg711
I550
sg712
I1353
sg713
I1110
sg714
I264
sg715
I1241
sg716
I102
sg717
I720
sg718
I2059
sg719
I191
sg720
I485
sg721
I162
sg722
I606
sg723
I1958
sg724
I1875
sg725
I1544
sS'2'
I211
sg726
I119
sg727
I812
sg728
I1349
sg729
I533
sg730
I630
sg731
I1453
sg732
I1973
sg733
I347
sg734
I1177
sg735
I759
sg736
I653
sg737
I1206
sg738
I1841
sg739
I505
sg740
I988
sg741
I1952
sg742
I1155
sg743
I2069
sg744
I1107
sg745
I45
sg746
I362
sg747
I18
sg748
I940
sg749
I153
sg750
I1871
sg751
I2002
sg752
I128
sg753
I1991
sg754
I1534
sg755
I1508
sg756
I450
sg757
I1585
sg758
I317
sg759
I1847
sg760
I1595
sg761
I1834
sg762
I1170
sg763
I1481
sg764
I1355
sg765
I1486
sg766
I650
sg767
I1296
sg768
I1480
sg769
I1539
sg770
I587
sg771
I863
sg772
I50
sg773
I920
sg774
I642
sg775
I1080
sg776
I775
sg777
I98
sg778
I886
sg779
I70
sg780
I1197
sg781
I108
sg782
I1002
sg783
I1516
sg784
I365
sg785
I796
sg786
I1751
sg787
I931
sg788
I620
sg789
I266
sg790
I724
sg791
I1702
sg792
I1592
sg793
I64
sg794
I1411
sg795
I1942
sg796
I1577
sg797
I1334
sg798
I1620
sg799
I754
sg800
I854
sg801
I981
sg802
I621
sg803
I1174
sg804
I312
sg805
I1335
sg806
I748
sg807
I1639
sg808
I583
sg809
I683
sg810
I68
sg811
I379
sg812
I448
sg813
I1851
sg814
I1148
sg815
I885
sg816
I1469
sS'3'
I344
sg817
I1574
sg818
I1377
sg819
I814
sg820
I1037
sg821
I163
sg822
I595
sg823
I1091
sg824
I744
sg825
I1149
sg826
I1968
sg827
I943
sg828
I103
sg829
I1456
sg830
I2016
sg831
I1712
sg832
I989
sg833
I567
sg834
I1192
sg835
I1077
sg836
I745
sg837
I1528
sg838
I895
sg839
I1057
sg840
I1638
sg841
I1818
sg842
I1152
sg843
I1289
sg844
I201
sg845
I410
sg846
I206
sg847
I1680
sg848
I1310
sg849
I1026
sg850
I930
sg851
I219
sg852
I973
sg853
I1449
sg854
I1791
sg855
I1099
sg856
I1434
sg857
I2092
sg858
I1972
sg859
I1432
sg860
I1853
sg861
I313
sg862
I768
sg863
I1963
sg864
I1611
sg865
I437
sg866
I502
sg867
I1813
sg868
I976
sg869
I302
sg870
I470
sg871
I1162
sg872
I1341
sg873
I1809
sg874
I1992
sg875
I320
sg876
I463
sg877
I1866
sg878
I526
sg879
I1944
sg880
I1215
sg881
I1249
sg882
I1288
sg883
I1036
sg884
I1652
sg885
I618
sg886
I10
sg887
I1262
sg888
I316
sg889
I2048
sg890
I1953
sg891
I1901
sg892
I1163
sg893
I1676
sg894
I492
sg895
I1190
sg896
I682
sS'I'
I139
sg897
I1383
sg898
I390
sg899
I300
sg900
I1130
sg901
I707
sg902
I1955
sg903
I2031
sg904
I667
sg905
I516
sg906
I1777
sg907
I530
sg908
I262
sg909
I252
sg910
I67
sg911
I1421
sg912
I1700
sg913
I1175
sg914
I321
sg915
I1049
sg916
I1601
sg917
I338
sg918
I818
sg919
I421
sg920
I48
sg921
I1055
sg922
I1222
sg923
I1127
sg924
I229
sg925
I937
sg926
I1538
sg927
I1062
sg928
I284
sg929
I1825
sg930
I718
sg931
I676
sg932
I743
sg933
I1826
sg934
I1581
sg935
I696
sg936
I1374
sg937
I622
sg938
I1357
sg939
I58
sg940
I186
sg941
I795
sg942
I1619
sg943
I2063
sg944
I966
sg945
I1752
sg946
I1784
sg947
I772
sg948
I1910
sg949
I1415
sg950
I507
sg951
I532
sg952
I22
sg953
I283
sg954
I297
sg955
I424
sg956
I779
sg957
I1988
sg958
I1928
sg959
I1092
sg960
I1685
sg961
I367
sg962
I1618
sg963
I435
sg964
I963
sg965
I860
sg966
I1665
sg967
I893
sg968
I1393
sg969
I1954
sg970
I6
sg971
I1193
sg972
I41
sg973
I76
sg974
I327
sg975
I396
sg976
I19
sg977
I2089
sg978
I208
sg979
I896
sg980
I166
sg981
I1886
sg982
I1609
sg983
I1744
sg984
I2051
sg985
I147
sg986
I1076
sg987
I1873
sg988
I62
sg989
I332
sg990
I761
sg991
I1166
sg992
I243
sg993
I1899
sg994
I1750
sS'J'
I1558
sg995
I649
sg996
I1654
sg997
I49
sg998
I1229
sg999
I1322
sg1000
I914
sg1001
I1524
sg1002
I687
sg1003
I737
sg1004
I1561
sg1005
I1087
sg1006
I1181
sg1007
I833
sg1008
I559
sg1009
I1709
sg1010
I697
sg1011
I1869
sg1012
I500
sg1013
I1593
sg1014
I2033
sg1015
I169
sg1016
I657
sg1017
I82
sg1018
I205
sg1019
I295
sg1020
I1888
sg1021
I1283
sg1022
I1365
sg1023
I2073
sg1024
I1523
sg1025
I405
sg1026
I1959
sg1027
I299
sg1028
I1941
sg1029
I1078
sg1030
I627
sg1031
I1264
sS'5'
I286
sg1032
I314
sg1033
I1731
sg1034
I974
sg1035
I636
sg1036
I998
sg1037
I1708
sg1038
I1404
sg1039
I1637
sg1040
I237
sg1041
I1226
sg1042
I669
sg1043
I2081
sg1044
I31
sg1045
I15
sg1046
I959
sg1047
I635
sg1048
I1333
sg1049
I762
sg1050
I1238
sg1051
I1521
sg1052
I778
sg1053
I1426
sg1054
I780
sg1055
I831
sg1056
I1568
sg1057
I1101
sg1058
I1876
sg1059
I760
sg1060
I1655
sg1061
I1891
sg1062
I811
sg1063
I1582
sg1064
I1008
sg1065
I272
sg1066
I1139
sg1067
I1830
sg1068
I991
sg1069
I2100
sg1070
I1531
sg1071
I2101
sg1072
I1682
sg1073
I35
sg1074
I1070
sg1075
I1644
sg1076
I281
sg1077
I12
sg1078
I1083
sg1079
I901
sg1080
I921
sg1081
I269
sg1082
I662
sg1083
I1142
sg1084
I2047
sg1085
I1452
sg1086
I1054
sg1087
I2103
sg1088
I495
sg1089
I2038
sg1090
I866
sg1091
I354
sg1092
I536
sg1093
I1306
sg1094
I1679
sg1095
I1356
sg1096
I1889
sg1097
I1035
sg1098
I1164
sg1099
I1141
sg1100
I560
sg1101
I1017
sg1102
I837
sg1103
I402
sg1104
I207
sg1105
I1799
sg1106
I1468
sg1107
I1933
sg1108
I487
sg1109
I1746
sg1110
I746
sg1111
I1707
sg1112
I1395
sg1113
I1863
sg1114
I1499
sg1115
I1267
sg1116
I1895
sg1117
I1379
sg1118
I1529
sg1119
I2013
sg1120
I1106
sg1121
I145
sg1122
I1629
sg1123
I346
sg1124
I1448
sg1125
I2014
sg1126
I161
sg1127
I1494
sg1128
I1579
sg1129
I1031
sg1130
I371
sg1131
I1201
sg1132
I51
sg1133
I483
sg1134
I1145
sg1135
I171
sg1136
I578
sg1137
I1623
sg1138
I710
sg1139
I1772
sg1140
I1389
sg1141
I926
sg1142
I1072
sg1143
I351
sg1144
I1029
sg1145
I2086
sS'v'
I335
sg1146
I336
sg1147
I497
sg1148
I1085
sg1149
I1559
sg1150
I1641
sg1151
I767
sg1152
I1727
sg1153
I1470
sg1154
I857
sg1155
I553
sg1156
I498
sg1157
I1897
sg1158
I176
sg1159
I1947
sg1160
I330
sg1161
I1982
sg1162
I671
sg1163
I2030
sg1164
I278
sg1165
I473
sg1166
I111
sg1167
I238
sS'a'
I83
sg1168
I1416
sg1169
I1272
sg1170
I484
sg1171
I1701
sg1172
I1116
sg1173
I1242
sg1174
I381
sg1175
I493
sg1176
I1209
sg1177
I884
sg1178
I215
sg1179
I1753
sg1180
I372
sg1181
I1549
sg1182
I1683
sg1183
I400
sg1184
I165
sg1185
I1923
sg1186
I1119
sg1187
I453
sg1188
I1802
sg1189
I1144
sg1190
I106
sg1191
I2094
sg1192
I1307
sg1193
I1394
sg1194
I223
sg1195
I107
sg1196
I626
sg1197
I545
sg1198
I182
sg1199
I482
sg1200
I1463
sg1201
I1358
sg1202
I1204
sg1203
I2046
sg1204
I78
sg1205
I1114
sg1206
I927
sg1207
I2083
sg1208
I1052
sg1209
I2017
sg1210
I185
sg1211
I1248
sg1212
I1771
sg1213
I1285
sg1214
I1397
sg1215
I864
sg1216
I1692
sg1217
I1966
sg1218
I1440
sg1219
I970
sg1220
I1832
sg1221
I1569
sg1222
I1390
sg1223
I1584
sg1224
I513
sg1225
I1724
sg1226
I1277
sg1227
I1636
sg1228
I705
sg1229
I305
sg1230
I1705
sg1231
I1487
sg1232
I181
sg1233
I2022
sg1234
I375
sg1235
I1681
sg1236
I603
sg1237
I1506
sg1238
I1146
sg1239
I2008
sg1240
I592
sg1241
I1659
sg1242
I348
sg1243
I573
sg1244
I562
sg1245
I1589
sg1246
I303
sg1247
I952
sg1248
I1828
sg1249
I255
sg1250
I1632
sg1251
I1090
sg1252
I1178
sg1253
I1500
sg1254
I1269
sg1255
I908
sg1256
I1414
sg1257
I702
sg1258
I897
sg1259
I1879
sg1260
I1664
sg1261
I479
sg1262
I1005
sg1263
I918
sg1264
I1387
sg1265
I1094
sg1266
I486
sg1267
I451
sg1268
I213
sg1269
I1407
sg1270
I1548
sg1271
I992
sg1272
I1103
sg1273
I1719
sg1274
I94
sg1275
I1464
sg1276
I1156
sg1277
I1792
sg1278
I2096
sg1279
I86
sg1280
I2064
sg1281
I1292
sg1282
I1515
sg1283
I794
sg1284
I1860
sg1285
I929
sg1286
I651
sg1287
I1503
sg1288
I524
sg1289
I1697
sg1290
I1934
sg1291
I572
sg1292
I708
sg1293
I226
sg1294
I1444
sg1295
I600
sg1296
I735
sg1297
I1208
sg1298
I688
sg1299
I2044
sg1300
I1689
sg1301
I1695
sg1302
I2065
sg1303
I1032
sg1304
I1059
sg1305
I1961
sg1306
I1550
sg1307
I1650
sg1308
I1902
sg1309
I130
sg1310
I597
sg1311
I1994
sg1312
I1003
sg1313
I944
sg1314
I1950
sg1315
I853
sg1316
I1745
sg1317
I712
sg1318
I359
sg1319
I703
sg1320
I590
sg1321
I1496
sg1322
I160
sg1323
I1599
sg1324
I290
sg1325
I1996
sg1326
I873
sg1327
I1883
sg1328
I679
sg1329
I2060
sg1330
I549
sg1331
I136
sS'8'
I87
sg1332
I1042
sg1333
I913
sg1334
I766
sg1335
I1820
sg1336
I1560
sg1337
I629
sg1338
I1375
sg1339
I911
sg1340
I1363
sg1341
I924
sg1342
I53
sg1343
I975
sg1344
I11
sg1345
I1385
sg1346
I661
sg1347
I579
sg1348
I2000
sg1349
I1693
sg1350
I148
sg1351
I123
sg1352
I1366
sg1353
I1396
sg1354
I599
sg1355
I167
sg1356
I1011
sg1357
I1401
sg1358
I183
sg1359
I1598
sg1360
I543
sg1361
I799
sg1362
I2056
sg1363
I2027
sg1364
I256
sg1365
I239
sg1366
I826
sg1367
I1703
sg1368
I1885
sg1369
I1135
sg1370
I414
sg1371
I1134
sg1372
I820
sg1373
I1514
sg1374
I199
sg1375
I1109
sg1376
I576
sg1377
I1836
sg1378
I374
sg1379
I1053
sg1380
I617
sg1381
I1567
sg1382
I1251
sg1383
I1940
sg1384
I593
sg1385
I877
sg1386
I1563
sg1387
I1861
sg1388
I1338
sg1389
I1263
sg1390
I1864
sg1391
I1773
sg1392
I1877
sg1393
I2090
sg1394
I586
sg1395
I88
sg1396
I1056
sg1397
I637
sg1398
I1536
sg1399
I1533
sg1400
I1616
sg1401
I1658
sg1402
I443
sg1403
I310
sg1404
I1454
sg1405
I521
sg1406
I42
sg1407
I678
sg1408
I1234
sg1409
I519
sg1410
I217
sg1411
I512
sg1412
I2020
sg1413
I916
sS'4'
I1522
sg1414
I1807
sg1415
I872
sg1416
I490
sg1417
I1227
sg1418
I1931
sg1419
I1788
sg1420
I1050
sg1421
I641
sg1422
I1245
sg1423
I2041
sg1424
I654
sg1425
I741
sg1426
I489
sg1427
I1760
sg1428
I822
sg1429
I1604
sg1430
I1041
sg1431
I806
sg1432
I871
sg1433
I408
sg1434
I950
sg1435
I1445
sg1436
I1737
sg1437
I474
sg1438
I1696
sg1439
I1476
sg1440
I455
sg1441
I1275
sg1442
I1045
sg1443
I1925
sg1444
I1023
sg1445
I1586
sg1446
I430
sg1447
I376
sg1448
I2023
sg1449
I157
sg1450
I1129
sg1451
I287
sg1452
I883
sg1453
I399
sg1454
I1603
sg1455
I1458
sg1456
I1546
sg1457
I1043
sg1458
I71
sg1459
I144
sg1460
I1939
sg1461
I731
sg1462
I752
sg1463
I1698
sg1464
I1420
sg1465
I934
sg1466
I101
sg1467
I2007
sg1468
I1649
sg1469
I574
sg1470
I7
sg1471
I95
sg1472
I851
sg1473
I1882
sg1474
I1769
sg1475
I152
sg1476
I915
sg1477
I1350
sg1478
I1607
sg1479
I1309
sg1480
I2005
sg1481
I172
sg1482
I942
sg1483
I1686
sg1484
I434
sg1485
I1331
sg1486
I499
sg1487
I2045
sg1488
I2026
sg1489
I2035
sg1490
I1684
sg1491
I1354
sg1492
I658
sg1493
I2015
sg1494
I36
sg1495
I1903
sg1496
I1687
sg1497
I1290
sg1498
I980
sg1499
I1281
sg1500
I150
sg1501
I1490
sg1502
I1428
sg1503
I1974
sg1504
I730
sg1505
I373
sg1506
I116
sg1507
I947
sg1508
I1311
sg1509
I1211
sg1510
I422
sg1511
I1789
sg1512
I1859
sg1513
I472
sg1514
I1461
sg1515
I197
sg1516
I1663
sg1517
I1743
sg1518
I1147
sg1519
I1766
sg1520
I59
sg1521
I1640
sg1522
I659
sg1523
I719
sg1524
I1235
sg1525
I142
sg1526
I1951
sg1527
I1816
sg1528
I2003
sg1529
I1892
sg1530
I334
sg1531
I1688
sg1532
I1295
sg1533
I824
sg1534
I1602
sg1535
I1096
sg1536
I1938
sg1537
I1343
sg1538
I1368
sg1539
I1673
sg1540
I1405
sg1541
I666
sg1542
I1460
sg1543
I1571
sg1544
I1513
sg1545
I1329
sg1546
I1195
sg1547
I810
sg1548
I1158
sg1549
I1409
sg1550
I1960
sg1551
I2050
sg1552
I1811
sg1553
I1540
sg1554
I406
sg1555
I1300
sg1556
I1803
sg1557
I1137
sg1558
I436
sg1559
I1150
sS'\xe5'
I1348
sg1560
I561
sg1561
I1930
sg1562
I2079
sg1563
I471
sg1564
I34
sg1565
I1212
sg1566
I1872
sg1567
I859
sg1568
I39
sg1569
I949
sg1570
I47
sg1571
I1441
sg1572
I1742
sg1573
I821
sg1574
I77
sg1575
I293
sg1576
I360
sg1577
I1360
sg1578
I259
sg1579
I808
sg1580
I27
sg1581
I189
sg1582
I178
sg1583
I1315
sg1584
I803
sg1585
I962
sg1586
I984
sg1587
I428
sg1588
I1965
sg1589
I2010
sg1590
I732
sg1591
I1319
sg1592
I1837
sg1593
I2042
sg1594
I1590
sg1595
I1704
sg1596
I1729
sg1597
I2071
sg1598
I1671
sg1599
I1424
sg1600
I2075
sg1601
I1117
sg1602
I1778
sg1603
I5
sg1604
I1128
sg1605
I1435
sg1606
I1191
sg1607
I1298
sg1608
I364
sg1609
I2087
sg1610
I21
sg1611
I694
sg1612
I2
sg1613
I537
sg1614
I2076
sg1615
I609
sg1616
I1932
sg1617
I1787
sS'P'
I1852
sg1618
I1645
sg1619
I614
sg1620
I1720
sg1621
I1376
sg1622
I25
sg1623
I1865
sg1624
I459
sg1625
I1911
sg1626
I370
sg1627
I1219
sg1628
I1250
sg1629
I964
sg1630
I1564
sg1631
I604
sg1632
I291
sg1633
I1220
sg1634
I1694
sg1635
I726
sg1636
I1653
sg1637
I363
sg1638
I1880
sg1639
I2029
sg1640
I282
sg1641
I1247
sg1642
I1878
sg1643
I813
sg1644
I271
sg1645
I717
sg1646
I610
sg1647
I16
sg1648
I1013
sg1649
I957
sg1650
I834
sg1651
I1427
sg1652
I72
sg1653
I1299
sg1654
I1722
sg1655
I1782
sg1656
I1793
sg1657
I539
sg1658
I1167
sg1659
I1674
sg1660
I1439
sg1661
I1713
sg1662
I1718
sg1663
I899
sg1664
I722
sg1665
I307
sg1666
I301
sg1667
I441
sg1668
I2024
sg1669
I432
sg1670
I1786
sg1671
I480
sg1672
I958
sg1673
I825
sg1674
I1849
sg1675
I247
sg1676
I613
sg1677
I1034
sg1678
I308
sg1679
I881
sg1680
I1429
sg1681
I1775
sg1682
I1169
sg1683
I1185
sg1684
I2025
sg1685
I56
sg1686
I1783
sg1687
I13
sg1688
I387
sg1689
I28
sg1690
I1172
sg1691
I601
sg1692
I1318
sg1693
I534
sg1694
I845
sg1695
I1213
sg1696
I852
sg1697
I2057
sg1698
I457
sg1699
I1140
sg1700
I1479
sg1701
I700
sg1702
I848
sg1703
I447
sg1704
I97
sg1705
I1706
sg1706
I790
sg1707
I888
sg1708
I840
sg1709
I681
sg1710
I1635
sg1711
I1846
sg1712
I961
sg1713
I1995
sg1714
I1268
sg1715
I1171
sg1716
I1840
sg1717
I1541
sg1718
I1935
sg1719
I2052
sg1720
I1614
sg1721
I1406
sg1722
I1443
sg1723
I750
sg1724
I1822
sg1725
I245
sg1726
I1575
sg1727
I1431
sg1728
I1835
sg1729
I1510
sg1730
I84
sg1731
I1271
sg1732
I1216
sg1733
I1583
sg1734
I464
sg1735
I124
sg1736
I1294
sg1737
I481
sg1738
I994
sg1739
I268
sg1740
I1596
sg1741
I551
sg1742
I660
sg1743
I439
sg1744
I1066
sg1745
I2067
sg1746
I1168
sg1747
I276
sg1748
I1957
sg1749
I1121
sg1750
I721
sg1751
I1044
sg1752
I905
sg1753
I858
sg1754
I127
sg1755
I1801
sg1756
I2072
sS"'"
I158
sg1757
I1716
sg1758
I555
sg1759
I120
sg1760
I218
sg1761
I932
sg1762
I804
sg1763
I246
sg1764
I1138
sg1765
I770
sg1766
I1626
sg1767
I1814
sg1768
I830
sg1769
I1918
sg1770
I1735
sg1771
I350
sg1772
I633
sg1773
I993
sg1774
I1557
sg1775
I496
sg1776
I202
sg1777
I1796
sg1778
I1725
sg1779
I996
sg1780
I420
sg1781
I401
sg1782
I1457
sg1783
I589
sg1784
I541
sg1785
I1340
sg1786
I60
sg1787
I1981
sg1788
I1058
sg1789
I241
sg1790
I1179
sg1791
I233
sg1792
I594
sg1793
I1945
sg1794
I535
sg1795
I602
sg1796
I1810
sg1797
I665
sg1798
I1430
sg1799
I1526
sg1800
I938
sg1801
I1237
sg1802
I847
sg1803
I773
sg1804
I1028
sg1805
I793
sg1806
I469
sg1807
I969
sg1808
I407
sg1809
I1758
sg1810
I843
sg1811
I196
sg1812
I1244
sg1813
I1010
sg1814
I1642
sg1815
I1320
sg1816
I829
sg1817
I356
sg1818
I850
sg1819
I819
sg1820
I1672
sg1821
I2011
sg1822
I270
sg1823
I304
sg1824
I1518
sg1825
I1615
sg1826
I154
sg1827
I1232
sg1828
I734
sg1829
I1276
sg1830
I1025
sg1831
I1433
sg1832
I1477
sg1833
I1282
sg1834
I960
sg1835
I1489
sg1836
I1535
sg1837
I616
sg1838
I1542
sg1839
I398
sg1840
I928
sg1841
I156
sg1842
I1794
sg1843
I1364
sg1844
I861
sg1845
I634
sg1846
I569
sg1847
I466
sg1848
I548
sg1849
I527
sg1850
I1442
sg1851
I2040
sg1852
I1492
sg1853
I460
sg1854
I114
sg1855
I1978
sg1856
I1543
sg1857
I1400
sg1858
I742
sg1859
I224
sg1860
I404
sg1861
I1337
sg1862
I187
sg1863
I755
sg1864
I454
sg1865
I3
sg1866
I747
sg1867
I547
sg1868
I425
sg1869
I395
sg1870
I380
sg1871
I1472
sg1872
I798
sg1873
I257
sg1874
I1495
sg1875
I1345
sg1876
I774
sg1877
I1438
sg1878
I1855
sg1879
I24
sg1880
I2009
sg1881
I1425
sg1882
I765
sg1883
I261
sg1884
I1627
sg1885
I954
sg1886
I1690
sg1887
I612
sg1888
I1369
sg1889
I628
sg1890
I52
sg1891
I1667
sg1892
I1920
sg1893
I557
sg1894
I1723
sg1895
I506
sg1896
I868
sg1897
I1218
sg1898
I2019
sg1899
I953
sg1900
I2021
sg1901
I386
sg1902
I648
sS'S'
I249
sg1903
I1741
sg1904
I967
sg1905
I20
sg1906
I727
sg1907
I1613
sg1908
I1039
sg1909
I695
sg1910
I876
sg1911
I1527
sg1912
I611
sg1913
I1633
sg1914
I1821
sg1915
I81
sg1916
I588
sg1917
I1551
sg1918
I292
sg1919
I1373
sg1920
I415
sg1921
I164
sg1922
I1254
sg1923
I220
sg1924
I511
sg1925
I904
sg1926
I1370
sg1927
I2039
sg1928
I1764
sg1929
I328
sg1930
I80
sg1931
I175
sg1932
I784
sg1933
I769
sg1934
I2093
sg1935
I815
sg1936
I1202
sg1937
I2061
sg1938
I1661
sg1939
I1854
sg1940
I1980
sg1941
I1027
sg1942
I1962
sg1943
I1929
sg1944
I250
sg1945
I816
sg1946
I582
sg1947
I1482
sg1948
I1100
sg1949
I475
sg1950
I214
sg1951
I558
sg1952
I2006
sg1953
I494
sg1954
I1621
sg1955
I632
sg1956
I805
sg1957
I190
sg1958
I656
sg1959
I903
sg1960
I552
sg1961
I670
sg1962
I631
sg1963
I1874
sg1964
I615
sg1965
I1198
sg1966
I997
sg1967
I179
sg1968
I1728
sg1969
I1790
sg1970
I445
sg1971
I230
sg1972
I544
sg1973
I1064
sg1974
I1131
sg1975
I1105
sg1976
I1022
sg1977
I1770
sg1978
I509
sg1979
I838
sg1980
I1570
sg1981
I1734
sg1982
I38
sg1983
I1196
sg1984
I835
sg1985
I383
sg1986
I517
sg1987
I652
sg1988
I1677
sg1989
I504
sg1990
I1668
sg1991
I827
sg1992
I1507
sg1993
I935
sg1994
I1210
sg1995
I693
sg1996
I1265
sg1997
I1291
sg1998
I948
sg1999
I865
sg2000
I1063
sg2001
I791
sg2002
I1691
sg2003
I1622
sg2004
I1829
sg2005
I638
sg2006
I1624
sg2007
I542
sg2008
I263
sg2009
I65
sg2010
I1831
sg2011
I887
sg2012
I565
sg2013
I1153
sg2014
I596
sg2015
I1779
sg2016
I985
sg2017
I135
sg2018
I540
sg2019
I522
sg2020
I568
sg2021
I244
sg2022
I1233
sg2023
I508
sg2024
I1279
sg2025
I675
sg2026
I133
sg2027
I1475
sg2028
I204
sg2029
I2062
sg2030
I8
sg2031
I1280
sg2032
I922
sg2033
I1079
sg2034
I1001
sg2035
I1922
sg2036
I1774
sg2037
I1833
sg2038
I923
sg2039
I725
sg2040
I1413
sg2041
I75
sg2042
I468
sg2043
I1352
sg2044
I324
sg2045
I1004
sg2046
I2082
sg2047
I1112
sg2048
I1161
sg2049
I1710
sg2050
I890
sg2051
I1856
sg2052
I1754
sg2053
I159
sg2054
I608
sg2055
I99
sg2056
I704
sg2057
I777
sg2058
I355
sg2059
I1662
sg2060
I1180
sg2061
I126
sg2062
I1217
sg2063
I1065
sg2064
I1313
sg2065
I242
sg2066
I880
sg2067
I1184
sg2068
I298
sg2069
I1316
sg2070
I1270
sg2071
I1187
sg2072
I1286
sg2073
I1391
sg2074
I1900
sg2075
I677
sg2076
I1386
sg2077
I968
sg2078
I1738
sg2079
I1160
sg2080
I1651
sg2081
I306
sg2082
I1843
sg2083
I862
sg2084
I892
sg2085
I1987
sg2086
I74
sg2087
I1403
sg2088
I1610
sg2089
I1573
sg2090
I1597
sg2091
I1314
sg2092
I757
sg2093
I1749
sS'U'
I248
sg2094
I1647
sg2095
I809
sg2096
I2028
sg2097
I874
sg2098
I173
sg2099
I668
sg2100
I1378
ssS'_reverse_mapping'
p2103
(lp2104
g12
ag404
ag1612
ag1865
ag128
ag1603
ag970
ag1470
ag2030
ag236
ag886
ag1344
ag1077
ag1687
aS'-'
ag1045
ag1647
ag534
ag747
ag976
ag1905
ag1610
ag952
ag228
ag1879
ag1622
ag384
ag1580
ag1689
ag269
ag676
ag1044
ag634
ag111
ag1564
ag1073
ag1494
ag413
ag1982
ag1568
ag389
ag972
ag1406
ag392
ag24
ag745
ag360
ag1570
ag920
ag997
ag772
ag1132
ag1890
ag1342
ag85
ag136
ag1685
ag437
ag939
ag1520
ag1786
ag486
ag988
ag73
ag793
ag2009
ag599
ag910
ag810
ag173
ag779
ag1458
ag1652
ag23
ag2086
ag2041
ag973
ag1574
ag1204
ag487
ag1930
ag1915
ag1017
aS'a'
ag1730
ag282
ag1279
aS'8'
ag1395
ag213
ag640
ag355
ag133
ag139
ag1274
ag1471
ag310
ag1704
ag777
ag2055
ag409
ag1466
ag716
ag828
ag590
ag410
ag1190
ag1195
ag781
ag591
ag426
ag1166
ag261
ag636
ag1854
ag21
ag1506
ag509
ag552
ag726
ag1759
ag167
ag568
ag1351
ag1735
ag250
ag2061
ag1754
ag752
ag115
ag1309
ag685
ag178
ag2026
ag101
ag2017
ag1331
ag194
ag529
aS'I'
ag65
ag321
ag1525
ag86
ag1459
ag1121
ag698
ag985
ag1350
ag31
ag1500
ag370
ag1475
ag749
ag1826
ag225
ag1841
ag1449
aS"'"
ag2053
ag1322
ag1126
ag721
ag821
ag1921
ag1184
ag980
ag1355
ag639
ag1015
ag103
ag1135
ag1481
ag2098
ag680
ag1931
ag1158
ag326
ag1582
ag1967
ag88
ag1232
ag1198
ag1358
ag702
ag1210
ag940
ag1862
ag588
ag1581
ag1957
ag719
ag163
ag538
ag556
ag289
ag1811
ag1515
ag50
ag1374
ag388
ag844
ag1776
ag144
ag2028
ag1018
ag846
ag1104
ag978
ag224
ag214
aS'2'
ag418
ag1268
ag1950
ag1178
ag327
ag1410
ag1760
ag851
ag1923
ag656
ag329
ag1194
ag1859
ag419
ag1293
ag586
ag600
ag924
ag1971
ag357
ag457
ag1791
ag521
ag539
ag436
ag1040
ag1167
ag1365
ag427
ag1789
ag2065
ag992
ag2021
ag1725
ag1763
ag1675
aS'U'
aS'S'
ag1944
ag110
ag909
ag564
ag341
ag1249
ag1364
ag1873
ag563
ag1578
ag557
ag1883
ag908
ag2008
ag714
ag707
ag789
ag635
ag1739
ag1081
ag1822
ag1644
ag1065
ag459
ag497
ag181
ag1747
ag298
ag1164
ag704
ag365
ag1076
ag1640
ag953
ag928
ag333
aS'5'
ag1451
ag533
ag231
ag1324
ag1632
ag1918
ag1575
ag349
ag1019
ag428
ag954
ag2068
ag1027
ag899
ag1666
ag869
ag1246
ag1823
ag1229
ag2081
ag1665
ag1678
ag594
ag1403
ag187
ag804
ag861
ag1032
ag26
ag888
ag758
ag473
ag186
ag875
ag914
ag68
ag160
ag2044
ag113
ag659
ag974
ag1929
ag147
ag1160
ag495
ag989
ag505
ag1530
aS'v'
ag1146
ag622
ag917
ag686
ag60
ag338
ag247
ag447
aS'3'
ag695
ag1123
ag733
ag1242
ag204
ag1771
ag1143
ag561
ag559
ag1091
ag2058
ag1817
ag43
ag632
ag1318
ag1576
ag350
ag746
ag1637
ag1608
ag784
ag613
ag961
ag491
ag625
ag1626
ag1130
ag1180
ag1505
ag1378
ag1234
ag1447
aS'1'
ag385
ag811
ag1870
ag1174
ag356
ag1985
ag238
ag451
ag1901
ag1688
ag297
ag305
ag898
ag45
ag454
ag609
ag293
ag1869
ag975
ag641
ag1839
ag1453
ag1183
ag1781
ag1103
ag99
ag1860
ag1025
ag1554
ag1808
ag1433
ag647
ag845
ag313
ag223
ag474
ag1370
ag1920
ag287
ag562
ag377
ag53
ag1780
ag919
ag1510
ag677
ag955
ag1868
ag248
ag95
ag1587
ag579
ag1446
ag394
ag1669
ag444
ag1484
ag963
ag1558
ag865
ag700
ag1743
ag565
ag1667
ag141
ag1402
ag311
ag1970
ag400
ag1703
ag812
ag615
ag756
ag1267
ag499
ag1187
ag1864
ag1440
ag379
ag1698
ag87
ag1624
ag1853
ag255
ag126
ag876
ag1734
ag696
ag1847
ag19
ag2042
ag1806
ag870
ag1563
ag1513
ag1165
ag1437
ag1949
ag221
ag424
ag104
ag1261
ag1671
ag1737
ag1199
ag1133
ag1170
ag720
ag1266
ag1108
ag673
ag1426
ag1416
ag584
ag894
ag1175
ag1953
ag1088
ag1775
ag1147
ag1156
ag1486
ag1012
aS'X'
ag866
ag345
ag1989
ag739
ag1895
ag950
ag2023
ag1978
ag601
ag1924
ag1411
ag1224
ag71
ag611
ag905
ag1986
ag344
ag1409
ag260
ag1405
ag2019
ag259
ag1288
ag245
ag878
ag1849
ag264
ag210
ag907
ag690
ag951
ag729
ag1693
ag1794
ag1092
ag1613
ag203
ag1657
ag2018
ag1784
ag2007
ag1360
ag1972
ag1197
ag434
ag1867
ag1848
ag1330
ag711
ag1741
ag1960
ag1155
ag693
ag1758
ag425
ag1893
ag1951
ag1008
ag1100
ag1560
ag1244
ag242
ag109
ag2012
aS'\xdb'
ag833
ag2020
ag1846
ag200
ag351
ag1291
ag1243
ag1469
ag440
ag1376
ag337
ag1136
ag1347
ag257
ag551
ag1946
ag808
ag119
ag285
ag1394
ag770
ag1916
ag1783
ag1320
ag304
ag1240
ag1384
ag1792
ag822
ag2014
ag1310
ag620
ag1354
ag1295
ag1691
ag1795
ag1236
ag1631
ag195
ag722
ag441
ag2054
ag1615
ag1646
ag1912
ag1887
ag1676
ag1619
ag1964
ag1837
ag1380
ag885
ag463
ag788
ag802
ag937
ag593
ag112
ag464
ag1196
ag1030
ag1889
ag1337
ag730
ag1962
ag1955
ag1772
ag1845
ag1047
ag1035
ag1397
ag2005
ag159
ag642
ag1421
ag774
ag212
ag395
ag407
ag299
ag516
ag1902
ag995
ag766
ag1286
ag1987
ag736
ag1424
ag234
ag1958
ag1016
ag1492
ag1522
ag1742
ag1346
ag1082
ag549
ag527
ag1797
ag1541
ag904
ag2099
ag1042
ag1961
ag1162
ag547
ag107
ag554
ag2025
ag931
ag2075
ag1407
ag1328
ag478
ag1709
ag896
ag809
ag369
ag513
ag651
ag1002
ag1298
ag438
ag319
ag512
ag587
ag1995
ag1611
ag1909
ag935
ag1010
ag97
ag273
ag1701
ag525
ag1257
ag1319
ag2056
ag1228
ag199
ag901
ag1292
ag679
ag1138
ag578
ag1317
ag32
ag171
ag135
ag571
ag1645
ag930
ag1523
ag717
ag1750
ag1664
ag631
ag790
ag2039
ag1635
ag1906
ag414
ag83
ag1504
ag1461
ag1590
ag489
ag1828
ag1296
ag596
ag1003
ag302
ag699
ag403
ag1425
ag1858
ag932
ag824
ag836
ag1110
ag1866
ag806
ag157
ag1723
ag528
ag1462
ag503
ag799
ag1863
ag455
ag2092
ag39
ag735
ag1059
ag990
ag1049
ag545
ag541
ag1882
ag1334
ag1151
ag862
ag1933
ag1765
ag470
ag947
ag1803
ag1876
ag776
ag93
ag2057
ag1052
ag956
ag1054
ag191
ag328
ag240
ag1932
ag292
ag646
ag25
ag229
ag381
ag1706
ag2001
ag544
ag1805
ag1283
ag941
ag785
ag320
ag1872
ag1361
ag514
ag70
ag132
ag1584
ag1762
ag1956
ag1431
ag170
ag1579
ag2095
ag1547
ag1062
ag727
ag1643
ag819
ag1935
ag1945
ag397
ag918
ag1819
ag1372
ag1573
ag1428
ag429
ag1533
ag1673
ag1366
ag1991
ag408
ag1816
ag1768
ag1055
ag114
ag1007
ag1650
ag1984
ag198
ag1102
ag1979
ag511
ag1708
ag280
ag218
ag1810
ag201
ag1694
ag653
ag1802
ag1702
ag94
ag1818
ag1472
ag1696
ag1315
ag800
ag694
ag688
ag1154
ag1753
ag1567
ag965
ag1844
ag2083
ag771
ag1215
ag1999
ag1090
ag102
ag1896
ag624
ag207
ag1432
ag1415
ag1326
ag2097
ag374
ag1910
ag1385
ag431
ag460
ag2066
ag1679
ag655
ag1452
ag1177
ag815
ag778
ag2011
ag1707
ag74
ag2050
ag164
ag2084
ag967
ag532
ag838
ag979
ag1258
ag177
ag1663
ag592
ag1079
ag383
ag1959
ag1925
ag1752
ag422
ag621
ag1255
ag296
ag498
ag1339
ag241
ag1333
ag1000
ag1476
ag1413
ag312
ag1263
ag79
ag773
ag1080
ag2032
ag2038
ag1341
ag488
ag1141
ag1206
ag1840
ag1285
ag850
ag787
ag1761
ag435
ag1465
ag1993
ag500
ag925
ag1800
ag37
ag748
ag294
ag1482
ag827
ag1313
ag108
ag84
ag1507
ag1998
ag1569
ag1434
ag462
ag1247
ag1899
ag1885
ag546
ag668
ag1649
ag1672
ag1046
ag1834
ag1712
ag1585
ag964
ag1629
ag415
ag944
ag1904
ag2077
ag1807
ag1219
ag168
ag515
ag852
ag1034
ag1343
ag868
ag227
ag542
ag387
ag1498
ag801
ag149
ag288
ag1586
ag2016
ag346
ag658
ag740
ag832
ag560
ag1068
ag1271
ag1773
ag1738
ag701
ag1779
ag1966
ag1036
ag331
ag363
ag2034
ag782
ag1312
ag2045
ag1262
ag143
ag146
ag1064
ag27
ag1813
ag1356
ag411
ag1648
ag270
ag637
ag118
ag1101
ag66
ag175
ag335
ag710
ag1976
ag1444
ag222
ag1830
ag849
ag1941
ag1804
ag1144
ag258
ag1129
ag1303
ag120
ag1677
ag1097
ag883
ag820
ag174
ag1908
ag662
ag1430
ag1332
ag1457
ag1751
ag1442
ag230
ag604
ag140
ag915
ag1420
ag465
ag1208
ag1379
ag1086
ag921
ag1396
ag839
ag1788
ag1304
ag433
ag215
ag927
ag2000
ag1973
ag2063
ag1744
ag420
ag683
ag51
ag1074
ag612
ag1142
ag458
ag47
ag267
ag986
ag835
ag1029
ag2033
ag775
ag589
ag82
ag1078
ag137
ag1148
ag124
ag1005
ag63
ag535
ag1251
ag823
ag959
ag123
ag1265
ag253
ag1535
ag555
ag649
ag855
ag1948
ag1057
ag254
ag1272
ag481
ag1975
ag1120
ag744
ag453
ag1375
ag713
ag706
ag2047
ag243
ag1205
ag116
ag1172
ag1601
ag602
ag1186
ag623
ag1749
ag537
ag193
ag354
ag291
ag493
ag923
ag1604
ag1450
ag900
ag1974
ag161
ag570
ag1371
ag1369
ag266
ag1557
ag1764
ag1066
ag1699
ag1099
ag1083
ag391
ag1189
ag1134
ag1238
ag1518
ag814
ag825
ag1559
ag423
ag842
ag2013
ag272
ag742
ag1276
ag577
ag1548
ag55
ag2079
ag2048
ag871
ag892
ag1098
ag271
ag991
ag1658
ag1746
ag1682
ag762
ag1715
ag1690
ag22
ag803
ag913
ag367
ag734
ag1252
ag1790
ag2060
ag1006
ag517
ag90
ag2067
ag1683
ag284
ag2071
ag468
ag540
ag895
ag1606
ag834
ag971
ag145
ag1546
ag1983
ag780
ag1965
ag35
ag479
ag1131
ag1936
ag54
ag1202
ag152
ag737
ag61
ag1297
ag1176
ag1994
ag1509
ag1565
ag1695
ag196
ag880
ag1732
ag2062
ag1897
ag1627
ag1633
ag443
ag922
ag442
ag268
ag687
ag1041
ag1417
ag208
ag998
ag628
ag30
ag1827
ag2022
ag1408
ag1524
ag154
ag1801
ag1050
ag504
ag256
ag715
ag1173
ag524
ag1812
ag1422
ag452
ag1641
ag1211
ag881
ag1628
ag1382
ag278
ag179
ag1922
ag306
ag439
ag301
ag558
ag197
ag675
ag169
ag887
ag1389
ag1031
ag1996
ag219
ag1115
ag1714
ag1254
ag2070
ag1731
ag1169
ag643
ag184
ag1441
ag1829
ag1226
ag303
ag2024
ag2031
ag1499
ag1833
ag1021
ag466
ag1213
ag2072
ag252
ag882
ag843
ag1497
ag1997
ag1281
ag494
ag1736
ag1532
ag767
ag477
ag1607
ag1653
ag1555
ag127
ag279
ag315
ag396
ag597
ag1093
ag1192
ag412
ag1479
ag848
ag1508
ag614
ag2064
ag2091
ag1583
ag2069
ag508
ag1692
ag1591
ag1815
ag81
ag999
ag340
ag33
ag456
ag472
ag216
ag80
ag1545
ag244
ag1485
ag476
ag1048
ag797
ag805
ag58
ag1861
ag1388
ag274
ag1785
ag872
ag353
ag1537
ag520
ag1875
ag575
ag176
aS'\xe5'
ag728
ag1477
ag28
ag2043
ag712
ag1491
ag764
ag1095
ag938
ag1201
ag138
ag1577
ag237
ag59
ag1340
ag1843
ag1022
ag1352
ag548
ag1538
ag1888
ag1926
ag325
ag672
ag1919
ag936
ag1338
ag1621
ag818
ag2100
ag1117
ag595
ag249
ag645
ag897
ag709
ag1345
ag2076
ag1264
ag585
ag1140
ag1222
ag2073
ag125
ag968
ag1193
ag1112
ag1353
ag1214
ag29
ag661
ag1857
ag1357
ag543
ag2087
ag1038
ag1540
ag1721
ag1269
ag445
ag1549
ag619
ag794
ag91
ag2040
ag1256
ag949
ag1168
ag233
ag421
ag57
ag1464
ag911
ag190
ag682
ag1599
ag1881
ag1053
ag1651
ag1502
ag1680
ag1798
ag1727
ag859
ag1831
ag856
ag1605
ag573
ag62
ag1877
ag1660
ag1218
ag1571
ag1850
ag1722
ag1294
ag1435
ag492
ag566
ag1124
ag853
ag574
ag526
ag1085
ag731
ag1404
ag484
ag829
ag1782
ag1455
ag368
ag1542
ag1514
ag667
ag1200
ag1275
ag405
ag501
ag650
ag1106
ag816
ag1153
ag334
ag1871
ag316
ag48
ag2027
ag1439
ag1832
ag206
ag1700
ag768
ag763
ag1947
ag352
ag569
ag150
ag765
ag1231
ag703
ag1835
ag1501
ag265
ag1852
ag314
ag1127
ag1874
ag1321
ag416
ag450
ag1114
ag1253
aS'W'
ag358
ag1287
ag117
aS'A'
ag1237
ag1992
ag755
ag648
ag1729
ag627
ag56
ag1544
ag1373
ag1282
ag783
ag235
ag1824
ag386
ag192
ag1051
aS'4'
ag1024
ag1001
ag64
ag1799
ag1911
ag837
ag1118
ag275
ag1070
ag490
ag1399
ag754
ag1836
ag1398
ag359
ag926
ag769
ag1553
ag1717
ag1838
ag1856
ag725
ag202
ag1456
ag519
ag1270
ag1181
ag1306
ag1917
ag567
ag378
ag402
ag308
ag324
ag1774
aS'J'
ag1149
ag1336
ag1004
ag295
ag1386
ag1630
ag471
ag553
ag1381
ag1056
ag1221
ag1980
ag1543
ag153
ag2089
ag817
ag1726
ag96
ag796
ag608
ag1128
ag217
ag934
ag1063
ag1733
ag1223
ag757
ag1445
ag336
ag339
ag1245
ag1594
ag40
ag792
ag1013
ag666
ag760
ag1740
ag2090
ag1359
ag1323
ag18
ag916
ag1534
ag1454
ag1429
ag182
ag155
ag1478
ag449
ag982
ag2088
ag864
ag251
ag1907
ag1720
ag1825
ag1400
ag684
ag962
ag942
ag798
ag1954
ag2003
ag1137
ag2006
ag671
ag1766
ag1884
ag581
ag1122
ag483
ag582
ag1250
ag1913
ag485
ag1710
ag1227
ag1039
ag840
ag807
ag1521
ag1150
ag1814
ag432
ag1075
ag1618
ag307
ag2094
ag674
ag1468
ag1307
ag2080
ag884
ag1636
ag996
ag1060
ag283
ag323
ag1401
ag1241
ag518
ag1938
ag2059
ag1516
ag1260
ag966
ag644
ag1891
ag1990
ag530
ag49
ag1598
ag1820
ag1539
ag1659
ag626
ag893
ag1988
ag638
ag1094
ag847
ag1235
ag1072
ag1182
ag1490
ag960
ag1483
ag1496
ag1531
ag1300
ag1886
ag2002
ag1216
ag1349
ag1634
ag1301
ag1438
ag1289
ag1463
ag603
ag912
ag1171
ag791
ag1367
ag1595
ag1230
ag1705
ag1111
ag1037
ag1009
ag2049
ag506
ag831
ag1661
ag317
ag375
ag1757
ag697
ag1662
ag1273
ag1620
ag531
ag1654
ag1894
ag1225
ag1778
ag89
ag1152
ag1968
ag1596
ag398
ag1033
ag692
ag343
ag1981
ag1770
ag669
ag1436
ag2078
ag131
ag502
ag1903
ag1572
ag1517
ag983
ag1316
ag1109
ag232
ag380
ag2093
ag994
ag786
ag945
ag1179
ag2052
ag598
ag629
ag246
ag1809
ag332
ag1427
ag691
ag130
ag98
ag1928
ag663
ag1519
ag300
ag46
ag1474
ag1977
ag1212
ag1139
ag1391
ag2036
ag1681
ag211
ag906
ag1602
ag2015
ag42
ag550
ag1655
ag1686
ag946
ag105
ag1670
ag1617
ag1419
ag1511
ag1969
ag854
ag1277
ag1656
ag1842
ag461
ag1777
ag188
ag309
ag1105
ag189
ag1755
ag1188
ag1556
ag373
ag507
ag20
ag1414
ag185
ag873
ag1796
ag1552
ag76
ag867
ag1767
ag399
ag1527
ag652
ag841
ag322
ag1335
ag1914
ag1724
ag142
ag165
ag929
ag933
ag523
ag1248
ag2004
ag1067
ag2010
ag1220
ag2037
ag761
ag1728
ag1377
ag1592
ag469
ag583
ag1716
ag738
ag670
ag2082
ag536
ag38
ag1711
ag759
ag162
ag1674
ag361
ag813
aS'P'
ag860
ag1939
ag1878
ag2051
ag605
ag277
ag1512
ag1284
ag1387
ag664
ag1113
ag1390
ag1623
ag877
ag607
ag580
ag1011
ag41
ag750
ag1566
ag987
ag1963
ag724
ag1058
ag1392
ag1642
ag1259
ag1638
ag633
ag1473
ag1327
ag239
ag1368
ag981
ag92
ag1020
ag1096
ag158
ag1061
ag1529
ag263
ag262
ag1116
ag496
ag1157
ag366
ag993
ag2074
ag891
ag1308
ag1495
ag382
ag220
ag708
ag446
ag660
ag617
ag948
ag1625
ag286
ag183
ag36
ag372
ag44
ag630
ag1769
ag657
ag1892
ag166
ag2035
ag1185
ag347
ag1443
ag226
ag618
ag958
ag1943
ag1561
ag1418
ag1616
ag1107
ag1290
ag1718
ag522
ag129
ag1536
ag1460
ag1383
ag1028
ag795
ag134
ag879
ag1793
ag364
ag1159
ag72
ag172
ag1314
ag1526
ag741
ag890
ag969
ag902
ag100
ag1748
ag723
ag1026
ag1550
ag1305
ag1942
ag863
ag348
ag1588
ag1217
ag401
ag826
ag318
ag480
ag406
ag858
ag732
ag1503
ag681
ag290
ag417
ag1855
ag376
ag1940
ag1787
ag1161
ag482
ag572
ag156
ag75
ag2085
ag957
ag678
ag448
ag753
ag874
ag151
ag1311
ag1713
ag1325
ag705
ag69
ag148
ag1348
ag665
ag751
ag1528
ag610
ag1480
ag1952
ag1467
ag1239
ag1880
ag1589
ag1821
ag510
ag1119
ag1125
ag1493
ag830
ag1209
ag122
ag1898
ag1412
ag1900
ag1233
ag1448
ag1668
ag1684
ag1488
ag1363
ag2096
ag1639
ag1163
ag903
ag67
ag1014
ag78
ag1489
ag390
ag371
ag1089
ag1927
ag1851
ag1423
ag1593
ag616
ag1299
ag1487
ag1203
ag1084
ag889
ag475
ag1551
ag984
ag1719
ag654
ag342
ag106
ag1362
ag1697
ag281
ag718
ag1329
ag1937
ag2029
ag943
ag1280
ag1302
ag77
ag1745
ag34
ag743
ag121
ag1597
ag1756
ag1023
ag576
ag1600
ag1614
ag209
ag393
ag1562
ag430
ag1043
ag2046
ag1207
ag180
ag362
ag1145
ag1609
ag606
ag977
ag1393
ag276
ag857
ag1934
ag1191
ag52
ag1278
ag330
ag689
ag205
ag1069
ag1071
ag467
ag1087
asbsS'max_document_length'
p2105
I100
sS'_tokenizer'
p2106
ctensorflow.contrib.learn.python.learn.preprocessing.text
tokenizer
p2107
sS'min_frequency'
p2108
I0
sb.